ARM GAS  C:\Users\MCisek\AppData\Local\Temp\cctnzjAb.s 			page 1


   1              		.cpu cortex-m0
   2              		.fpu softvfp
   3              		.eabi_attribute 20, 1
   4              		.eabi_attribute 21, 1
   5              		.eabi_attribute 23, 3
   6              		.eabi_attribute 24, 1
   7              		.eabi_attribute 25, 1
   8              		.eabi_attribute 26, 1
   9              		.eabi_attribute 30, 1
  10              		.eabi_attribute 34, 0
  11              		.eabi_attribute 18, 4
  12              		.code	16
  13              		.file	"cyfitter_cfg.c"
  14              		.text
  15              	.Ltext0:
  16              		.cfi_sections	.debug_frame
  17              		.section	.text.cfg_write_bytes32,"ax",%progbits
  18              		.align	2
  19              		.code	16
  20              		.thumb_func
  21              		.type	cfg_write_bytes32, %function
  22              	cfg_write_bytes32:
  23              	.LFB5:
  24              		.file 1 ".\\Generated_Source\\PSoC4\\cyfitter_cfg.c"
   1:.\Generated_Source\PSoC4/cyfitter_cfg.c **** /*******************************************************************************
   2:.\Generated_Source\PSoC4/cyfitter_cfg.c **** * File Name: cyfitter_cfg.c
   3:.\Generated_Source\PSoC4/cyfitter_cfg.c **** * 
   4:.\Generated_Source\PSoC4/cyfitter_cfg.c **** * PSoC Creator  3.3 CP1
   5:.\Generated_Source\PSoC4/cyfitter_cfg.c **** *
   6:.\Generated_Source\PSoC4/cyfitter_cfg.c **** * Description:
   7:.\Generated_Source\PSoC4/cyfitter_cfg.c **** * This file contains device initialization code.
   8:.\Generated_Source\PSoC4/cyfitter_cfg.c **** * Except for the user defined sections in CyClockStartupError(), this file should not be modified.
   9:.\Generated_Source\PSoC4/cyfitter_cfg.c **** * This file is automatically generated by PSoC Creator.
  10:.\Generated_Source\PSoC4/cyfitter_cfg.c **** *
  11:.\Generated_Source\PSoC4/cyfitter_cfg.c **** ********************************************************************************
  12:.\Generated_Source\PSoC4/cyfitter_cfg.c **** * Copyright (c) 2007-2015 Cypress Semiconductor.  All rights reserved.
  13:.\Generated_Source\PSoC4/cyfitter_cfg.c **** * You may use this file only in accordance with the license, terms, conditions, 
  14:.\Generated_Source\PSoC4/cyfitter_cfg.c **** * disclaimers, and limitations in the end user license agreement accompanying 
  15:.\Generated_Source\PSoC4/cyfitter_cfg.c **** * the software package with which this file was provided.
  16:.\Generated_Source\PSoC4/cyfitter_cfg.c **** ********************************************************************************/
  17:.\Generated_Source\PSoC4/cyfitter_cfg.c **** 
  18:.\Generated_Source\PSoC4/cyfitter_cfg.c **** #include <string.h>
  19:.\Generated_Source\PSoC4/cyfitter_cfg.c **** #include "cytypes.h"
  20:.\Generated_Source\PSoC4/cyfitter_cfg.c **** #include "cydevice_trm.h"
  21:.\Generated_Source\PSoC4/cyfitter_cfg.c **** #include "cyfitter.h"
  22:.\Generated_Source\PSoC4/cyfitter_cfg.c **** #include "CyLib.h"
  23:.\Generated_Source\PSoC4/cyfitter_cfg.c **** #include "CyLFClk.h"
  24:.\Generated_Source\PSoC4/cyfitter_cfg.c **** #include "cyfitter_cfg.h"
  25:.\Generated_Source\PSoC4/cyfitter_cfg.c **** 
  26:.\Generated_Source\PSoC4/cyfitter_cfg.c **** 
  27:.\Generated_Source\PSoC4/cyfitter_cfg.c **** #if defined(__GNUC__) || defined(__ARMCC_VERSION)
  28:.\Generated_Source\PSoC4/cyfitter_cfg.c ****     #define CYPACKED 
  29:.\Generated_Source\PSoC4/cyfitter_cfg.c ****     #define CYPACKED_ATTR __attribute__ ((packed))
  30:.\Generated_Source\PSoC4/cyfitter_cfg.c ****     #define CYALIGNED __attribute__ ((aligned))
  31:.\Generated_Source\PSoC4/cyfitter_cfg.c ****     #define CY_CFG_UNUSED __attribute__ ((unused))
  32:.\Generated_Source\PSoC4/cyfitter_cfg.c ****     #define CY_CFG_SECTION __attribute__ ((section(".psocinit")))
  33:.\Generated_Source\PSoC4/cyfitter_cfg.c ****     
ARM GAS  C:\Users\MCisek\AppData\Local\Temp\cctnzjAb.s 			page 2


  34:.\Generated_Source\PSoC4/cyfitter_cfg.c ****     #if defined(__ARMCC_VERSION)
  35:.\Generated_Source\PSoC4/cyfitter_cfg.c ****         #define CY_CFG_MEMORY_BARRIER() __memory_changed()
  36:.\Generated_Source\PSoC4/cyfitter_cfg.c ****     #else
  37:.\Generated_Source\PSoC4/cyfitter_cfg.c ****         #define CY_CFG_MEMORY_BARRIER() __sync_synchronize()
  38:.\Generated_Source\PSoC4/cyfitter_cfg.c ****     #endif
  39:.\Generated_Source\PSoC4/cyfitter_cfg.c ****     
  40:.\Generated_Source\PSoC4/cyfitter_cfg.c **** #elif defined(__ICCARM__)
  41:.\Generated_Source\PSoC4/cyfitter_cfg.c ****     #include <intrinsics.h>
  42:.\Generated_Source\PSoC4/cyfitter_cfg.c **** 
  43:.\Generated_Source\PSoC4/cyfitter_cfg.c ****     #define CYPACKED __packed
  44:.\Generated_Source\PSoC4/cyfitter_cfg.c ****     #define CYPACKED_ATTR 
  45:.\Generated_Source\PSoC4/cyfitter_cfg.c ****     #define CYALIGNED _Pragma("data_alignment=4")
  46:.\Generated_Source\PSoC4/cyfitter_cfg.c ****     #define CY_CFG_UNUSED _Pragma("diag_suppress=Pe177")
  47:.\Generated_Source\PSoC4/cyfitter_cfg.c ****     #define CY_CFG_SECTION _Pragma("location=\".psocinit\"")
  48:.\Generated_Source\PSoC4/cyfitter_cfg.c ****     
  49:.\Generated_Source\PSoC4/cyfitter_cfg.c ****     #define CY_CFG_MEMORY_BARRIER() __DMB()
  50:.\Generated_Source\PSoC4/cyfitter_cfg.c ****     
  51:.\Generated_Source\PSoC4/cyfitter_cfg.c **** #else
  52:.\Generated_Source\PSoC4/cyfitter_cfg.c ****     #error Unsupported toolchain
  53:.\Generated_Source\PSoC4/cyfitter_cfg.c **** #endif
  54:.\Generated_Source\PSoC4/cyfitter_cfg.c **** 
  55:.\Generated_Source\PSoC4/cyfitter_cfg.c **** 
  56:.\Generated_Source\PSoC4/cyfitter_cfg.c **** CY_CFG_UNUSED
  57:.\Generated_Source\PSoC4/cyfitter_cfg.c **** static void CYMEMZERO(void *s, size_t n);
  58:.\Generated_Source\PSoC4/cyfitter_cfg.c **** CY_CFG_UNUSED
  59:.\Generated_Source\PSoC4/cyfitter_cfg.c **** static void CYMEMZERO(void *s, size_t n)
  60:.\Generated_Source\PSoC4/cyfitter_cfg.c **** {
  61:.\Generated_Source\PSoC4/cyfitter_cfg.c **** 	(void)memset(s, 0, n);
  62:.\Generated_Source\PSoC4/cyfitter_cfg.c **** }
  63:.\Generated_Source\PSoC4/cyfitter_cfg.c **** CY_CFG_UNUSED
  64:.\Generated_Source\PSoC4/cyfitter_cfg.c **** static void CYCONFIGCPY(void *dest, const void *src, size_t n);
  65:.\Generated_Source\PSoC4/cyfitter_cfg.c **** CY_CFG_UNUSED
  66:.\Generated_Source\PSoC4/cyfitter_cfg.c **** static void CYCONFIGCPY(void *dest, const void *src, size_t n)
  67:.\Generated_Source\PSoC4/cyfitter_cfg.c **** {
  68:.\Generated_Source\PSoC4/cyfitter_cfg.c **** 	(void)memcpy(dest, src, n);
  69:.\Generated_Source\PSoC4/cyfitter_cfg.c **** }
  70:.\Generated_Source\PSoC4/cyfitter_cfg.c **** CY_CFG_UNUSED
  71:.\Generated_Source\PSoC4/cyfitter_cfg.c **** static void CYCONFIGCPYCODE(void *dest, const void *src, size_t n);
  72:.\Generated_Source\PSoC4/cyfitter_cfg.c **** CY_CFG_UNUSED
  73:.\Generated_Source\PSoC4/cyfitter_cfg.c **** static void CYCONFIGCPYCODE(void *dest, const void *src, size_t n)
  74:.\Generated_Source\PSoC4/cyfitter_cfg.c **** {
  75:.\Generated_Source\PSoC4/cyfitter_cfg.c **** 	(void)memcpy(dest, src, n);
  76:.\Generated_Source\PSoC4/cyfitter_cfg.c **** }
  77:.\Generated_Source\PSoC4/cyfitter_cfg.c **** 
  78:.\Generated_Source\PSoC4/cyfitter_cfg.c **** 
  79:.\Generated_Source\PSoC4/cyfitter_cfg.c **** 
  80:.\Generated_Source\PSoC4/cyfitter_cfg.c **** /* Clock startup error codes                                                   */
  81:.\Generated_Source\PSoC4/cyfitter_cfg.c **** #define CYCLOCKSTART_NO_ERROR    0u
  82:.\Generated_Source\PSoC4/cyfitter_cfg.c **** #define CYCLOCKSTART_XTAL_ERROR  1u
  83:.\Generated_Source\PSoC4/cyfitter_cfg.c **** #define CYCLOCKSTART_32KHZ_ERROR 2u
  84:.\Generated_Source\PSoC4/cyfitter_cfg.c **** #define CYCLOCKSTART_PLL_ERROR   3u
  85:.\Generated_Source\PSoC4/cyfitter_cfg.c **** 
  86:.\Generated_Source\PSoC4/cyfitter_cfg.c **** #ifdef CY_NEED_CYCLOCKSTARTUPERROR
  87:.\Generated_Source\PSoC4/cyfitter_cfg.c **** /*******************************************************************************
  88:.\Generated_Source\PSoC4/cyfitter_cfg.c **** * Function Name: CyClockStartupError
  89:.\Generated_Source\PSoC4/cyfitter_cfg.c **** ********************************************************************************
  90:.\Generated_Source\PSoC4/cyfitter_cfg.c **** * Summary:
ARM GAS  C:\Users\MCisek\AppData\Local\Temp\cctnzjAb.s 			page 3


  91:.\Generated_Source\PSoC4/cyfitter_cfg.c **** *  If an error is encountered during clock configuration (crystal startup error,
  92:.\Generated_Source\PSoC4/cyfitter_cfg.c **** *  PLL lock error, etc.), the system will end up here.  Unless reimplemented by
  93:.\Generated_Source\PSoC4/cyfitter_cfg.c **** *  the customer, this function will stop in an infinite loop.
  94:.\Generated_Source\PSoC4/cyfitter_cfg.c **** *
  95:.\Generated_Source\PSoC4/cyfitter_cfg.c **** * Parameters:
  96:.\Generated_Source\PSoC4/cyfitter_cfg.c **** *   void
  97:.\Generated_Source\PSoC4/cyfitter_cfg.c **** *
  98:.\Generated_Source\PSoC4/cyfitter_cfg.c **** * Return:
  99:.\Generated_Source\PSoC4/cyfitter_cfg.c **** *   void
 100:.\Generated_Source\PSoC4/cyfitter_cfg.c **** *
 101:.\Generated_Source\PSoC4/cyfitter_cfg.c **** *******************************************************************************/
 102:.\Generated_Source\PSoC4/cyfitter_cfg.c **** CY_CFG_UNUSED
 103:.\Generated_Source\PSoC4/cyfitter_cfg.c **** static void CyClockStartupError(uint8 errorCode);
 104:.\Generated_Source\PSoC4/cyfitter_cfg.c **** CY_CFG_UNUSED
 105:.\Generated_Source\PSoC4/cyfitter_cfg.c **** static void CyClockStartupError(uint8 errorCode)
 106:.\Generated_Source\PSoC4/cyfitter_cfg.c **** {
 107:.\Generated_Source\PSoC4/cyfitter_cfg.c ****     /* To remove the compiler warning if errorCode not used.                */
 108:.\Generated_Source\PSoC4/cyfitter_cfg.c ****     errorCode = errorCode;
 109:.\Generated_Source\PSoC4/cyfitter_cfg.c **** 
 110:.\Generated_Source\PSoC4/cyfitter_cfg.c ****     /* `#START CyClockStartupError` */
 111:.\Generated_Source\PSoC4/cyfitter_cfg.c **** 
 112:.\Generated_Source\PSoC4/cyfitter_cfg.c ****     /* If we have a clock startup error (bad MHz crystal, PLL lock, etc.),  */
 113:.\Generated_Source\PSoC4/cyfitter_cfg.c ****     /* we will end up here to allow the customer to implement something to  */
 114:.\Generated_Source\PSoC4/cyfitter_cfg.c ****     /* deal with the clock condition.                                       */
 115:.\Generated_Source\PSoC4/cyfitter_cfg.c **** 
 116:.\Generated_Source\PSoC4/cyfitter_cfg.c ****     /* `#END` */
 117:.\Generated_Source\PSoC4/cyfitter_cfg.c **** 
 118:.\Generated_Source\PSoC4/cyfitter_cfg.c ****     /* If nothing else, stop here since the clocks have not started         */
 119:.\Generated_Source\PSoC4/cyfitter_cfg.c ****     /* correctly.                                                           */
 120:.\Generated_Source\PSoC4/cyfitter_cfg.c ****     while(1) {}
 121:.\Generated_Source\PSoC4/cyfitter_cfg.c **** }
 122:.\Generated_Source\PSoC4/cyfitter_cfg.c **** #endif
 123:.\Generated_Source\PSoC4/cyfitter_cfg.c **** 
 124:.\Generated_Source\PSoC4/cyfitter_cfg.c **** #define CY_CFG_BASE_ADDR_COUNT 5u
 125:.\Generated_Source\PSoC4/cyfitter_cfg.c **** CYPACKED typedef struct
 126:.\Generated_Source\PSoC4/cyfitter_cfg.c **** {
 127:.\Generated_Source\PSoC4/cyfitter_cfg.c **** 	uint8 offset;
 128:.\Generated_Source\PSoC4/cyfitter_cfg.c **** 	uint8 value;
 129:.\Generated_Source\PSoC4/cyfitter_cfg.c **** } CYPACKED_ATTR cy_cfg_addrvalue_t;
 130:.\Generated_Source\PSoC4/cyfitter_cfg.c **** 
 131:.\Generated_Source\PSoC4/cyfitter_cfg.c **** 
 132:.\Generated_Source\PSoC4/cyfitter_cfg.c **** 
 133:.\Generated_Source\PSoC4/cyfitter_cfg.c **** /*******************************************************************************
 134:.\Generated_Source\PSoC4/cyfitter_cfg.c **** * Function Name: cfg_write_bytes32
 135:.\Generated_Source\PSoC4/cyfitter_cfg.c **** ********************************************************************************
 136:.\Generated_Source\PSoC4/cyfitter_cfg.c **** * Summary:
 137:.\Generated_Source\PSoC4/cyfitter_cfg.c **** *  This function is used for setting up the chip configuration areas that
 138:.\Generated_Source\PSoC4/cyfitter_cfg.c **** *  contain relatively sparse data.
 139:.\Generated_Source\PSoC4/cyfitter_cfg.c **** *
 140:.\Generated_Source\PSoC4/cyfitter_cfg.c **** * Parameters:
 141:.\Generated_Source\PSoC4/cyfitter_cfg.c **** *   void
 142:.\Generated_Source\PSoC4/cyfitter_cfg.c **** *
 143:.\Generated_Source\PSoC4/cyfitter_cfg.c **** * Return:
 144:.\Generated_Source\PSoC4/cyfitter_cfg.c **** *   void
 145:.\Generated_Source\PSoC4/cyfitter_cfg.c **** *
 146:.\Generated_Source\PSoC4/cyfitter_cfg.c **** *******************************************************************************/
 147:.\Generated_Source\PSoC4/cyfitter_cfg.c **** static void cfg_write_bytes32(const uint32 addr_table[], const cy_cfg_addrvalue_t data_table[]);
ARM GAS  C:\Users\MCisek\AppData\Local\Temp\cctnzjAb.s 			page 4


 148:.\Generated_Source\PSoC4/cyfitter_cfg.c **** static void cfg_write_bytes32(const uint32 addr_table[], const cy_cfg_addrvalue_t data_table[])
 149:.\Generated_Source\PSoC4/cyfitter_cfg.c **** {
  25              		.loc 1 149 0
  26              		.cfi_startproc
  27              	.LVL0:
  28 0000 F0B5     		push	{r4, r5, r6, r7, lr}
  29              		.cfi_def_cfa_offset 20
  30              		.cfi_offset 4, -20
  31              		.cfi_offset 5, -16
  32              		.cfi_offset 6, -12
  33              		.cfi_offset 7, -8
  34              		.cfi_offset 14, -4
  35              	.LVL1:
 150:.\Generated_Source\PSoC4/cyfitter_cfg.c **** 	/* For 32-bit little-endian architectures */
 151:.\Generated_Source\PSoC4/cyfitter_cfg.c **** 	uint32 i, j = 0u;
  36              		.loc 1 151 0
  37 0002 0025     		mov	r5, #0
 152:.\Generated_Source\PSoC4/cyfitter_cfg.c **** 	for (i = 0u; i < CY_CFG_BASE_ADDR_COUNT; i++)
  38              		.loc 1 152 0
  39 0004 0027     		mov	r7, #0
  40 0006 11E0     		b	.L2
  41              	.LVL2:
  42              	.L5:
  43              	.LBB2:
 153:.\Generated_Source\PSoC4/cyfitter_cfg.c **** 	{
 154:.\Generated_Source\PSoC4/cyfitter_cfg.c **** 		uint32 baseAddr = addr_table[i];
  44              		.loc 1 154 0
  45 0008 BB00     		lsl	r3, r7, #2
  46 000a C658     		ldr	r6, [r0, r3]
  47              	.LVL3:
 155:.\Generated_Source\PSoC4/cyfitter_cfg.c **** 		uint8 count = (uint8)baseAddr;
  48              		.loc 1 155 0
  49 000c F3B2     		uxtb	r3, r6
  50              	.LVL4:
 156:.\Generated_Source\PSoC4/cyfitter_cfg.c **** 		baseAddr &= 0xFFFFFF00u;
  51              		.loc 1 156 0
  52 000e FF22     		mov	r2, #255
  53 0010 9643     		bic	r6, r2
  54              	.LVL5:
 157:.\Generated_Source\PSoC4/cyfitter_cfg.c **** 		while (count != 0u)
  55              		.loc 1 157 0
  56 0012 08E0     		b	.L3
  57              	.L4:
 158:.\Generated_Source\PSoC4/cyfitter_cfg.c **** 		{
 159:.\Generated_Source\PSoC4/cyfitter_cfg.c **** 			CY_SET_XTND_REG8((void CYFAR *)(baseAddr + data_table[j].offset), data_table[j].value);
  58              		.loc 1 159 0
  59 0014 6A00     		lsl	r2, r5, #1
  60 0016 8A18     		add	r2, r1, r2
  61 0018 1478     		ldrb	r4, [r2]
  62 001a A419     		add	r4, r4, r6
  63 001c 5278     		ldrb	r2, [r2, #1]
  64 001e 2270     		strb	r2, [r4]
 160:.\Generated_Source\PSoC4/cyfitter_cfg.c **** 			j++;
  65              		.loc 1 160 0
  66 0020 0135     		add	r5, r5, #1
  67              	.LVL6:
 161:.\Generated_Source\PSoC4/cyfitter_cfg.c **** 			count--;
ARM GAS  C:\Users\MCisek\AppData\Local\Temp\cctnzjAb.s 			page 5


  68              		.loc 1 161 0
  69 0022 013B     		sub	r3, r3, #1
  70              	.LVL7:
  71 0024 DBB2     		uxtb	r3, r3
  72              	.LVL8:
  73              	.L3:
 157:.\Generated_Source\PSoC4/cyfitter_cfg.c **** 		{
  74              		.loc 1 157 0
  75 0026 002B     		cmp	r3, #0
  76 0028 F4D1     		bne	.L4
  77              	.LBE2:
 152:.\Generated_Source\PSoC4/cyfitter_cfg.c **** 	{
  78              		.loc 1 152 0 discriminator 2
  79 002a 0137     		add	r7, r7, #1
  80              	.LVL9:
  81              	.L2:
 152:.\Generated_Source\PSoC4/cyfitter_cfg.c **** 	{
  82              		.loc 1 152 0 is_stmt 0 discriminator 1
  83 002c 042F     		cmp	r7, #4
  84 002e EBD9     		bls	.L5
 162:.\Generated_Source\PSoC4/cyfitter_cfg.c **** 		}
 163:.\Generated_Source\PSoC4/cyfitter_cfg.c **** 	}
 164:.\Generated_Source\PSoC4/cyfitter_cfg.c **** }
  85              		.loc 1 164 0 is_stmt 1
  86              		@ sp needed
  87              	.LVL10:
  88              	.LVL11:
  89 0030 F0BD     		pop	{r4, r5, r6, r7, pc}
  90              		.cfi_endproc
  91              	.LFE5:
  92              		.size	cfg_write_bytes32, .-cfg_write_bytes32
  93 0032 C046     		.section	.text.AnalogSetDefault,"ax",%progbits
  94              		.align	2
  95              		.code	16
  96              		.thumb_func
  97              		.type	AnalogSetDefault, %function
  98              	AnalogSetDefault:
  99              	.LFB7:
 165:.\Generated_Source\PSoC4/cyfitter_cfg.c **** 
 166:.\Generated_Source\PSoC4/cyfitter_cfg.c **** 
 167:.\Generated_Source\PSoC4/cyfitter_cfg.c **** /*******************************************************************************
 168:.\Generated_Source\PSoC4/cyfitter_cfg.c **** * Function Name: ClockSetup
 169:.\Generated_Source\PSoC4/cyfitter_cfg.c **** ********************************************************************************
 170:.\Generated_Source\PSoC4/cyfitter_cfg.c **** *
 171:.\Generated_Source\PSoC4/cyfitter_cfg.c **** * Summary:
 172:.\Generated_Source\PSoC4/cyfitter_cfg.c **** *   Performs the initialization of all of the clocks in the device based on the
 173:.\Generated_Source\PSoC4/cyfitter_cfg.c **** *   settings in the Clock tab of the DWR.  This includes enabling the requested
 174:.\Generated_Source\PSoC4/cyfitter_cfg.c **** *   clocks and setting the necessary dividers to produce the desired frequency. 
 175:.\Generated_Source\PSoC4/cyfitter_cfg.c **** *
 176:.\Generated_Source\PSoC4/cyfitter_cfg.c **** * Parameters:
 177:.\Generated_Source\PSoC4/cyfitter_cfg.c **** *   void
 178:.\Generated_Source\PSoC4/cyfitter_cfg.c **** *
 179:.\Generated_Source\PSoC4/cyfitter_cfg.c **** * Return:
 180:.\Generated_Source\PSoC4/cyfitter_cfg.c **** *   void
 181:.\Generated_Source\PSoC4/cyfitter_cfg.c **** *
 182:.\Generated_Source\PSoC4/cyfitter_cfg.c **** *******************************************************************************/
 183:.\Generated_Source\PSoC4/cyfitter_cfg.c **** static void ClockSetup(void);
ARM GAS  C:\Users\MCisek\AppData\Local\Temp\cctnzjAb.s 			page 6


 184:.\Generated_Source\PSoC4/cyfitter_cfg.c **** CY_CFG_SECTION
 185:.\Generated_Source\PSoC4/cyfitter_cfg.c **** static void ClockSetup(void)
 186:.\Generated_Source\PSoC4/cyfitter_cfg.c **** {
 187:.\Generated_Source\PSoC4/cyfitter_cfg.c **** 
 188:.\Generated_Source\PSoC4/cyfitter_cfg.c **** 	/* Set Flash Cycles based on max possible frequency in case a glitch occurs during ClockSetup(). *
 189:.\Generated_Source\PSoC4/cyfitter_cfg.c **** 	CY_SET_REG32((void CYXDATA *)(CYREG_CPUSS_FLASH_CTL), (0x0012u));
 190:.\Generated_Source\PSoC4/cyfitter_cfg.c **** 
 191:.\Generated_Source\PSoC4/cyfitter_cfg.c **** 	/* Start the WCO */
 192:.\Generated_Source\PSoC4/cyfitter_cfg.c **** 	CySysClkWcoStart();
 193:.\Generated_Source\PSoC4/cyfitter_cfg.c **** 	(void)CySysClkWcoSetPowerMode(CY_SYS_CLK_WCO_LPM);    /* Switch to the low power mode */
 194:.\Generated_Source\PSoC4/cyfitter_cfg.c **** 
 195:.\Generated_Source\PSoC4/cyfitter_cfg.c **** 	/* Setup and trim IMO based on desired frequency. */
 196:.\Generated_Source\PSoC4/cyfitter_cfg.c **** 	CySysClkWriteImoFreq(24u);
 197:.\Generated_Source\PSoC4/cyfitter_cfg.c **** 	/* CYDEV_CLK_ILO_CONFIG Starting address: CYDEV_CLK_ILO_CONFIG */
 198:.\Generated_Source\PSoC4/cyfitter_cfg.c **** 	CY_SET_XTND_REG32((void CYFAR *)(CYREG_CLK_ILO_CONFIG), 0x80000006u);
 199:.\Generated_Source\PSoC4/cyfitter_cfg.c **** 
 200:.\Generated_Source\PSoC4/cyfitter_cfg.c **** 
 201:.\Generated_Source\PSoC4/cyfitter_cfg.c **** 	/* Enable fast start mode for XO */
 202:.\Generated_Source\PSoC4/cyfitter_cfg.c **** 	CY_SET_REG32((void*)CYREG_BLE_BLERD_BB_XO, CY_GET_REG32((void*)CYREG_BLE_BLERD_BB_XO) | (uint32)0x
 203:.\Generated_Source\PSoC4/cyfitter_cfg.c **** 	CY_SET_XTND_REG32((void CYFAR *)(CYREG_BLE_BLERD_BB_XO_CAPTRIM), 0x00003E2Du);
 204:.\Generated_Source\PSoC4/cyfitter_cfg.c **** 	/* Disable Crystal Stable Interrupt before enabling ECO */
 205:.\Generated_Source\PSoC4/cyfitter_cfg.c **** 	CY_SET_REG32((void*)CYREG_BLE_BLESS_LL_DSM_CTRL, CY_GET_REG32((void*)CYREG_BLE_BLESS_LL_DSM_CTRL) 
 206:.\Generated_Source\PSoC4/cyfitter_cfg.c **** 	/* Start the ECO and do not check status since it is not needed for HFCLK */
 207:.\Generated_Source\PSoC4/cyfitter_cfg.c **** 	(void)CySysClkEcoStart(2000u);
 208:.\Generated_Source\PSoC4/cyfitter_cfg.c **** 	CyDelayUs(1500u); /* Wait to stabalize */
 209:.\Generated_Source\PSoC4/cyfitter_cfg.c **** 
 210:.\Generated_Source\PSoC4/cyfitter_cfg.c **** 	/* Setup phase aligned clocks */
 211:.\Generated_Source\PSoC4/cyfitter_cfg.c **** 	CY_SET_REG32((void *)CYREG_PERI_DIV_16_CTL2, 0x0001DF00u);
 212:.\Generated_Source\PSoC4/cyfitter_cfg.c **** 	CY_SET_REG32((void *)CYREG_PERI_DIV_CMD, 0x8000FF42u);
 213:.\Generated_Source\PSoC4/cyfitter_cfg.c **** 	CY_SET_REG32((void *)CYREG_PERI_DIV_16_CTL0, 0x00000E00u);
 214:.\Generated_Source\PSoC4/cyfitter_cfg.c **** 	CY_SET_REG32((void *)CYREG_PERI_DIV_CMD, 0x8000FF40u);
 215:.\Generated_Source\PSoC4/cyfitter_cfg.c **** 	CY_SET_REG32((void *)CYREG_PERI_DIV_16_CTL1, 0x00001000u);
 216:.\Generated_Source\PSoC4/cyfitter_cfg.c **** 	CY_SET_REG32((void *)CYREG_PERI_DIV_CMD, 0x8000FF41u);
 217:.\Generated_Source\PSoC4/cyfitter_cfg.c **** 
 218:.\Generated_Source\PSoC4/cyfitter_cfg.c **** 	/* CYDEV_CLK_IMO_CONFIG Starting address: CYDEV_CLK_IMO_CONFIG */
 219:.\Generated_Source\PSoC4/cyfitter_cfg.c **** 	CY_SET_XTND_REG32((void CYFAR *)(CYREG_CLK_IMO_CONFIG), 0x80000000u);
 220:.\Generated_Source\PSoC4/cyfitter_cfg.c **** 
 221:.\Generated_Source\PSoC4/cyfitter_cfg.c **** 	/* CYDEV_PERI_PCLK_CTL11 Starting address: CYDEV_PERI_PCLK_CTL11 */
 222:.\Generated_Source\PSoC4/cyfitter_cfg.c **** 	CY_SET_XTND_REG32((void CYFAR *)(CYREG_PERI_PCLK_CTL11), 0x00000042u);
 223:.\Generated_Source\PSoC4/cyfitter_cfg.c **** 
 224:.\Generated_Source\PSoC4/cyfitter_cfg.c **** 	/* CYDEV_PERI_PCLK_CTL8 Starting address: CYDEV_PERI_PCLK_CTL8 */
 225:.\Generated_Source\PSoC4/cyfitter_cfg.c **** 	CY_SET_XTND_REG32((void CYFAR *)(CYREG_PERI_PCLK_CTL8), 0x00000042u);
 226:.\Generated_Source\PSoC4/cyfitter_cfg.c **** 
 227:.\Generated_Source\PSoC4/cyfitter_cfg.c **** 	/* CYDEV_PERI_PCLK_CTL7 Starting address: CYDEV_PERI_PCLK_CTL7 */
 228:.\Generated_Source\PSoC4/cyfitter_cfg.c **** 	CY_SET_XTND_REG32((void CYFAR *)(CYREG_PERI_PCLK_CTL7), 0x00000042u);
 229:.\Generated_Source\PSoC4/cyfitter_cfg.c **** 
 230:.\Generated_Source\PSoC4/cyfitter_cfg.c **** 	/* CYDEV_PERI_PCLK_CTL2 Starting address: CYDEV_PERI_PCLK_CTL2 */
 231:.\Generated_Source\PSoC4/cyfitter_cfg.c **** 	CY_SET_XTND_REG32((void CYFAR *)(CYREG_PERI_PCLK_CTL2), 0x00000040u);
 232:.\Generated_Source\PSoC4/cyfitter_cfg.c **** 
 233:.\Generated_Source\PSoC4/cyfitter_cfg.c **** 	/* CYDEV_PERI_PCLK_CTL1 Starting address: CYDEV_PERI_PCLK_CTL1 */
 234:.\Generated_Source\PSoC4/cyfitter_cfg.c **** 	CY_SET_XTND_REG32((void CYFAR *)(CYREG_PERI_PCLK_CTL1), 0x00000041u);
 235:.\Generated_Source\PSoC4/cyfitter_cfg.c **** 
 236:.\Generated_Source\PSoC4/cyfitter_cfg.c **** 	(void)CyIntSetVector(8u, &CySysWdtIsr);
 237:.\Generated_Source\PSoC4/cyfitter_cfg.c **** 	CyIntEnable(8u);
 238:.\Generated_Source\PSoC4/cyfitter_cfg.c **** 	CY_SET_XTND_REG32((void CYFAR *)(CYREG_WDT_CONFIG), 0x00000000u);
 239:.\Generated_Source\PSoC4/cyfitter_cfg.c **** 	/* Set Flash Cycles based on newly configured 24.00MHz HFCLK. */
 240:.\Generated_Source\PSoC4/cyfitter_cfg.c **** 	CY_SET_REG32((void CYXDATA *)(CYREG_CPUSS_FLASH_CTL), (0x0011u));
ARM GAS  C:\Users\MCisek\AppData\Local\Temp\cctnzjAb.s 			page 7


 241:.\Generated_Source\PSoC4/cyfitter_cfg.c **** }
 242:.\Generated_Source\PSoC4/cyfitter_cfg.c **** 
 243:.\Generated_Source\PSoC4/cyfitter_cfg.c **** 
 244:.\Generated_Source\PSoC4/cyfitter_cfg.c **** /* Analog API Functions */
 245:.\Generated_Source\PSoC4/cyfitter_cfg.c **** 
 246:.\Generated_Source\PSoC4/cyfitter_cfg.c **** 
 247:.\Generated_Source\PSoC4/cyfitter_cfg.c **** /*******************************************************************************
 248:.\Generated_Source\PSoC4/cyfitter_cfg.c **** * Function Name: AnalogSetDefault
 249:.\Generated_Source\PSoC4/cyfitter_cfg.c **** ********************************************************************************
 250:.\Generated_Source\PSoC4/cyfitter_cfg.c **** *
 251:.\Generated_Source\PSoC4/cyfitter_cfg.c **** * Summary:
 252:.\Generated_Source\PSoC4/cyfitter_cfg.c **** *  Sets up the analog portions of the chip to default values based on chip
 253:.\Generated_Source\PSoC4/cyfitter_cfg.c **** *  configuration options from the project.
 254:.\Generated_Source\PSoC4/cyfitter_cfg.c **** *
 255:.\Generated_Source\PSoC4/cyfitter_cfg.c **** * Parameters:
 256:.\Generated_Source\PSoC4/cyfitter_cfg.c **** *  void
 257:.\Generated_Source\PSoC4/cyfitter_cfg.c **** *
 258:.\Generated_Source\PSoC4/cyfitter_cfg.c **** * Return:
 259:.\Generated_Source\PSoC4/cyfitter_cfg.c **** *  void
 260:.\Generated_Source\PSoC4/cyfitter_cfg.c **** *
 261:.\Generated_Source\PSoC4/cyfitter_cfg.c **** *******************************************************************************/
 262:.\Generated_Source\PSoC4/cyfitter_cfg.c **** static void AnalogSetDefault(void);
 263:.\Generated_Source\PSoC4/cyfitter_cfg.c **** static void AnalogSetDefault(void)
 264:.\Generated_Source\PSoC4/cyfitter_cfg.c **** {
 100              		.loc 1 264 0
 101              		.cfi_startproc
 265:.\Generated_Source\PSoC4/cyfitter_cfg.c **** 	CY_SET_XTND_REG32((void CYFAR *)CYREG_CTBM0_DFT_CTRL, 0x00000003u);
 102              		.loc 1 265 0
 103 0000 0323     		mov	r3, #3
 104 0002 044A     		ldr	r2, .L7
 105 0004 1360     		str	r3, [r2]
 266:.\Generated_Source\PSoC4/cyfitter_cfg.c **** 	CY_SET_XTND_REG32((void CYFAR *)CYREG_CTBM1_DFT_CTRL, 0x00000003u);
 106              		.loc 1 266 0
 107 0006 044A     		ldr	r2, .L7+4
 108 0008 1360     		str	r3, [r2]
 267:.\Generated_Source\PSoC4/cyfitter_cfg.c **** 	CY_SET_XTND_REG32((void CYFAR *)CYREG_PASS_DSAB_DSAB_CTRL, 0x00000000u);
 109              		.loc 1 267 0
 110 000a 0022     		mov	r2, #0
 111 000c 034B     		ldr	r3, .L7+8
 112 000e 1A60     		str	r2, [r3]
 268:.\Generated_Source\PSoC4/cyfitter_cfg.c **** }
 113              		.loc 1 268 0
 114              		@ sp needed
 115 0010 7047     		bx	lr
 116              	.L8:
 117 0012 C046     		.align	2
 118              	.L7:
 119 0014 30003040 		.word	1076887600
 120 0018 30003140 		.word	1076953136
 121 001c 000E3F40 		.word	1077874176
 122              		.cfi_endproc
 123              	.LFE7:
 124              		.size	AnalogSetDefault, .-AnalogSetDefault
 125              		.section	.text.CYMEMZERO,"ax",%progbits
 126              		.align	2
 127              		.code	16
 128              		.thumb_func
ARM GAS  C:\Users\MCisek\AppData\Local\Temp\cctnzjAb.s 			page 8


 129              		.type	CYMEMZERO, %function
 130              	CYMEMZERO:
 131              	.LFB2:
  60:.\Generated_Source\PSoC4/cyfitter_cfg.c **** 	(void)memset(s, 0, n);
 132              		.loc 1 60 0
 133              		.cfi_startproc
 134              	.LVL12:
 135 0000 08B5     		push	{r3, lr}
 136              		.cfi_def_cfa_offset 8
 137              		.cfi_offset 3, -8
 138              		.cfi_offset 14, -4
 139 0002 0A1C     		mov	r2, r1
  61:.\Generated_Source\PSoC4/cyfitter_cfg.c **** }
 140              		.loc 1 61 0
 141 0004 0021     		mov	r1, #0
 142              	.LVL13:
 143 0006 FFF7FEFF 		bl	memset
 144              	.LVL14:
  62:.\Generated_Source\PSoC4/cyfitter_cfg.c **** CY_CFG_UNUSED
 145              		.loc 1 62 0
 146              		@ sp needed
 147 000a 08BD     		pop	{r3, pc}
 148              		.cfi_endproc
 149              	.LFE2:
 150              		.size	CYMEMZERO, .-CYMEMZERO
 151              		.section	.psocinit,"ax",%progbits
 152              		.align	2
 153              		.code	16
 154              		.thumb_func
 155              		.type	ClockSetup, %function
 156              	ClockSetup:
 157              	.LFB6:
 186:.\Generated_Source\PSoC4/cyfitter_cfg.c **** 
 158              		.loc 1 186 0
 159              		.cfi_startproc
 160 0000 10B5     		push	{r4, lr}
 161              		.cfi_def_cfa_offset 8
 162              		.cfi_offset 4, -8
 163              		.cfi_offset 14, -4
 189:.\Generated_Source\PSoC4/cyfitter_cfg.c **** 
 164              		.loc 1 189 0
 165 0002 294C     		ldr	r4, .L11
 166 0004 1223     		mov	r3, #18
 167 0006 2360     		str	r3, [r4]
 192:.\Generated_Source\PSoC4/cyfitter_cfg.c **** 	(void)CySysClkWcoSetPowerMode(CY_SYS_CLK_WCO_LPM);    /* Switch to the low power mode */
 168              		.loc 1 192 0
 169 0008 FFF7FEFF 		bl	CySysClkWcoStart
 170              	.LVL15:
 193:.\Generated_Source\PSoC4/cyfitter_cfg.c **** 
 171              		.loc 1 193 0
 172 000c 0120     		mov	r0, #1
 173 000e FFF7FEFF 		bl	CySysClkWcoSetPowerMode
 174              	.LVL16:
 196:.\Generated_Source\PSoC4/cyfitter_cfg.c **** 	/* CYDEV_CLK_ILO_CONFIG Starting address: CYDEV_CLK_ILO_CONFIG */
 175              		.loc 1 196 0
 176 0012 1820     		mov	r0, #24
 177 0014 FFF7FEFF 		bl	CySysClkWriteImoFreq
ARM GAS  C:\Users\MCisek\AppData\Local\Temp\cctnzjAb.s 			page 9


 178              	.LVL17:
 198:.\Generated_Source\PSoC4/cyfitter_cfg.c **** 
 179              		.loc 1 198 0
 180 0018 244A     		ldr	r2, .L11+4
 181 001a 254B     		ldr	r3, .L11+8
 182 001c 1A60     		str	r2, [r3]
 202:.\Generated_Source\PSoC4/cyfitter_cfg.c **** 	CY_SET_XTND_REG32((void CYFAR *)(CYREG_BLE_BLERD_BB_XO_CAPTRIM), 0x00003E2Du);
 183              		.loc 1 202 0
 184 001e 254A     		ldr	r2, .L11+12
 185 0020 1168     		ldr	r1, [r2]
 186 0022 0223     		mov	r3, #2
 187 0024 0B43     		orr	r3, r1
 188 0026 1360     		str	r3, [r2]
 203:.\Generated_Source\PSoC4/cyfitter_cfg.c **** 	/* Disable Crystal Stable Interrupt before enabling ECO */
 189              		.loc 1 203 0
 190 0028 234A     		ldr	r2, .L11+16
 191 002a 244B     		ldr	r3, .L11+20
 192 002c 1A60     		str	r2, [r3]
 205:.\Generated_Source\PSoC4/cyfitter_cfg.c **** 	/* Start the ECO and do not check status since it is not needed for HFCLK */
 193              		.loc 1 205 0
 194 002e 244A     		ldr	r2, .L11+24
 195 0030 1368     		ldr	r3, [r2]
 196 0032 0821     		mov	r1, #8
 197 0034 8B43     		bic	r3, r1
 198 0036 1360     		str	r3, [r2]
 207:.\Generated_Source\PSoC4/cyfitter_cfg.c **** 	CyDelayUs(1500u); /* Wait to stabalize */
 199              		.loc 1 207 0
 200 0038 FA20     		mov	r0, #250
 201 003a C000     		lsl	r0, r0, #3
 202 003c FFF7FEFF 		bl	CySysClkEcoStart
 203              	.LVL18:
 208:.\Generated_Source\PSoC4/cyfitter_cfg.c **** 
 204              		.loc 1 208 0
 205 0040 2048     		ldr	r0, .L11+28
 206 0042 FFF7FEFF 		bl	CyDelayUs
 207              	.LVL19:
 211:.\Generated_Source\PSoC4/cyfitter_cfg.c **** 	CY_SET_REG32((void *)CYREG_PERI_DIV_CMD, 0x8000FF42u);
 208              		.loc 1 211 0
 209 0046 204A     		ldr	r2, .L11+32
 210 0048 204B     		ldr	r3, .L11+36
 211 004a 1A60     		str	r2, [r3]
 212:.\Generated_Source\PSoC4/cyfitter_cfg.c **** 	CY_SET_REG32((void *)CYREG_PERI_DIV_16_CTL0, 0x00000E00u);
 212              		.loc 1 212 0
 213 004c 204B     		ldr	r3, .L11+40
 214 004e 214A     		ldr	r2, .L11+44
 215 0050 1A60     		str	r2, [r3]
 213:.\Generated_Source\PSoC4/cyfitter_cfg.c **** 	CY_SET_REG32((void *)CYREG_PERI_DIV_CMD, 0x8000FF40u);
 216              		.loc 1 213 0
 217 0052 E021     		mov	r1, #224
 218 0054 0901     		lsl	r1, r1, #4
 219 0056 204A     		ldr	r2, .L11+48
 220 0058 1160     		str	r1, [r2]
 214:.\Generated_Source\PSoC4/cyfitter_cfg.c **** 	CY_SET_REG32((void *)CYREG_PERI_DIV_16_CTL1, 0x00001000u);
 221              		.loc 1 214 0
 222 005a 204A     		ldr	r2, .L11+52
 223 005c 1A60     		str	r2, [r3]
 215:.\Generated_Source\PSoC4/cyfitter_cfg.c **** 	CY_SET_REG32((void *)CYREG_PERI_DIV_CMD, 0x8000FF41u);
ARM GAS  C:\Users\MCisek\AppData\Local\Temp\cctnzjAb.s 			page 10


 224              		.loc 1 215 0
 225 005e 8021     		mov	r1, #128
 226 0060 4901     		lsl	r1, r1, #5
 227 0062 1F4A     		ldr	r2, .L11+56
 228 0064 1160     		str	r1, [r2]
 216:.\Generated_Source\PSoC4/cyfitter_cfg.c **** 
 229              		.loc 1 216 0
 230 0066 1F4A     		ldr	r2, .L11+60
 231 0068 1A60     		str	r2, [r3]
 219:.\Generated_Source\PSoC4/cyfitter_cfg.c **** 
 232              		.loc 1 219 0
 233 006a 8022     		mov	r2, #128
 234 006c 1206     		lsl	r2, r2, #24
 235 006e 1E4B     		ldr	r3, .L11+64
 236 0070 1A60     		str	r2, [r3]
 222:.\Generated_Source\PSoC4/cyfitter_cfg.c **** 
 237              		.loc 1 222 0
 238 0072 4223     		mov	r3, #66
 239 0074 1D4A     		ldr	r2, .L11+68
 240 0076 1360     		str	r3, [r2]
 225:.\Generated_Source\PSoC4/cyfitter_cfg.c **** 
 241              		.loc 1 225 0
 242 0078 1D4A     		ldr	r2, .L11+72
 243 007a 1360     		str	r3, [r2]
 228:.\Generated_Source\PSoC4/cyfitter_cfg.c **** 
 244              		.loc 1 228 0
 245 007c 1D4A     		ldr	r2, .L11+76
 246 007e 1360     		str	r3, [r2]
 231:.\Generated_Source\PSoC4/cyfitter_cfg.c **** 
 247              		.loc 1 231 0
 248 0080 4022     		mov	r2, #64
 249 0082 1D4B     		ldr	r3, .L11+80
 250 0084 1A60     		str	r2, [r3]
 234:.\Generated_Source\PSoC4/cyfitter_cfg.c **** 
 251              		.loc 1 234 0
 252 0086 0132     		add	r2, r2, #1
 253 0088 1C4B     		ldr	r3, .L11+84
 254 008a 1A60     		str	r2, [r3]
 236:.\Generated_Source\PSoC4/cyfitter_cfg.c **** 	CyIntEnable(8u);
 255              		.loc 1 236 0
 256 008c 0820     		mov	r0, #8
 257 008e 1C49     		ldr	r1, .L11+88
 258 0090 FFF7FEFF 		bl	CyIntSetVector
 259              	.LVL20:
 237:.\Generated_Source\PSoC4/cyfitter_cfg.c **** 	CY_SET_XTND_REG32((void CYFAR *)(CYREG_WDT_CONFIG), 0x00000000u);
 260              		.loc 1 237 0
 261 0094 0820     		mov	r0, #8
 262 0096 FFF7FEFF 		bl	CyIntEnable
 263              	.LVL21:
 238:.\Generated_Source\PSoC4/cyfitter_cfg.c **** 	/* Set Flash Cycles based on newly configured 24.00MHz HFCLK. */
 264              		.loc 1 238 0
 265 009a 0022     		mov	r2, #0
 266 009c 194B     		ldr	r3, .L11+92
 267 009e 1A60     		str	r2, [r3]
 240:.\Generated_Source\PSoC4/cyfitter_cfg.c **** }
 268              		.loc 1 240 0
 269 00a0 1123     		mov	r3, #17
ARM GAS  C:\Users\MCisek\AppData\Local\Temp\cctnzjAb.s 			page 11


 270 00a2 2360     		str	r3, [r4]
 241:.\Generated_Source\PSoC4/cyfitter_cfg.c **** 
 271              		.loc 1 241 0
 272              		@ sp needed
 273 00a4 10BD     		pop	{r4, pc}
 274              	.L12:
 275 00a6 C046     		.align	2
 276              	.L11:
 277 00a8 30001040 		.word	1074790448
 278 00ac 06000080 		.word	-2147483642
 279 00b0 04010B40 		.word	1074462980
 280 00b4 78002E40 		.word	1076756600
 281 00b8 2D3E0000 		.word	15917
 282 00bc 7C002E40 		.word	1076756604
 283 00c0 6CF02E40 		.word	1076818028
 284 00c4 DC050000 		.word	1500
 285 00c8 00DF0100 		.word	122624
 286 00cc 08030140 		.word	1073808136
 287 00d0 00000140 		.word	1073807360
 288 00d4 42FF0080 		.word	-2147418302
 289 00d8 00030140 		.word	1073808128
 290 00dc 40FF0080 		.word	-2147418304
 291 00e0 04030140 		.word	1073808132
 292 00e4 41FF0080 		.word	-2147418303
 293 00e8 08010B40 		.word	1074462984
 294 00ec 2C010140 		.word	1073807660
 295 00f0 20010140 		.word	1073807648
 296 00f4 1C010140 		.word	1073807644
 297 00f8 08010140 		.word	1073807624
 298 00fc 04010140 		.word	1073807620
 299 0100 00000000 		.word	CySysWdtIsr
 300 0104 0C020B40 		.word	1074463244
 301              		.cfi_endproc
 302              	.LFE6:
 303              		.size	ClockSetup, .-ClockSetup
 304              		.align	2
 305              		.global	cyfitter_cfg
 306              		.code	16
 307              		.thumb_func
 308              		.type	cyfitter_cfg, %function
 309              	cyfitter_cfg:
 310              	.LFB8:
 269:.\Generated_Source\PSoC4/cyfitter_cfg.c **** 
 270:.\Generated_Source\PSoC4/cyfitter_cfg.c **** #define CY_AMUX_UNUSED CYREG_CM0_ROM_DWT
 271:.\Generated_Source\PSoC4/cyfitter_cfg.c **** 
 272:.\Generated_Source\PSoC4/cyfitter_cfg.c **** 
 273:.\Generated_Source\PSoC4/cyfitter_cfg.c **** /*******************************************************************************
 274:.\Generated_Source\PSoC4/cyfitter_cfg.c **** * Function Name: cyfitter_cfg
 275:.\Generated_Source\PSoC4/cyfitter_cfg.c **** ********************************************************************************
 276:.\Generated_Source\PSoC4/cyfitter_cfg.c **** * Summary:
 277:.\Generated_Source\PSoC4/cyfitter_cfg.c **** *  This function is called by the start-up code for the selected device. It
 278:.\Generated_Source\PSoC4/cyfitter_cfg.c **** *  performs all of the necessary device configuration based on the design
 279:.\Generated_Source\PSoC4/cyfitter_cfg.c **** *  settings.  This includes settings from the Design Wide Resources (DWR) such
 280:.\Generated_Source\PSoC4/cyfitter_cfg.c **** *  as Clocks and Pins as well as any component configuration that is necessary.
 281:.\Generated_Source\PSoC4/cyfitter_cfg.c **** *
 282:.\Generated_Source\PSoC4/cyfitter_cfg.c **** * Parameters:  
 283:.\Generated_Source\PSoC4/cyfitter_cfg.c **** *   void
ARM GAS  C:\Users\MCisek\AppData\Local\Temp\cctnzjAb.s 			page 12


 284:.\Generated_Source\PSoC4/cyfitter_cfg.c **** *
 285:.\Generated_Source\PSoC4/cyfitter_cfg.c **** * Return:
 286:.\Generated_Source\PSoC4/cyfitter_cfg.c **** *   void
 287:.\Generated_Source\PSoC4/cyfitter_cfg.c **** *
 288:.\Generated_Source\PSoC4/cyfitter_cfg.c **** *******************************************************************************/
 289:.\Generated_Source\PSoC4/cyfitter_cfg.c **** CY_CFG_SECTION
 290:.\Generated_Source\PSoC4/cyfitter_cfg.c **** void cyfitter_cfg(void)
 291:.\Generated_Source\PSoC4/cyfitter_cfg.c **** {
 311              		.loc 1 291 0
 312              		.cfi_startproc
 313 0108 10B5     		push	{r4, lr}
 314              		.cfi_def_cfa_offset 8
 315              		.cfi_offset 4, -8
 316              		.cfi_offset 14, -4
 292:.\Generated_Source\PSoC4/cyfitter_cfg.c **** 	/* Disable interrupts by default. Let user enable if/when they want. */
 293:.\Generated_Source\PSoC4/cyfitter_cfg.c **** 	CyGlobalIntDisable;
 317              		.loc 1 293 0
 318              	@ 293 ".\Generated_Source\PSoC4\cyfitter_cfg.c" 1
 319 010a 72B6     		CPSID   i
 320              	@ 0 "" 2
 294:.\Generated_Source\PSoC4/cyfitter_cfg.c **** 
 295:.\Generated_Source\PSoC4/cyfitter_cfg.c **** 	CY_SET_XTND_REG32((void CYFAR *)(CYREG_BLE_BLESS_LL_DSM_CTRL), 0x00000000u);
 321              		.loc 1 295 0
 322              		.code	16
 323 010c 0022     		mov	r2, #0
 324 010e 344B     		ldr	r3, .L16
 325 0110 1A60     		str	r2, [r3]
 326              	.LVL22:
 327              	.LBB3:
 296:.\Generated_Source\PSoC4/cyfitter_cfg.c **** 
 297:.\Generated_Source\PSoC4/cyfitter_cfg.c **** 	{
 298:.\Generated_Source\PSoC4/cyfitter_cfg.c **** 		static const uint32 CYCODE cy_cfg_addr_table[] = {
 299:.\Generated_Source\PSoC4/cyfitter_cfg.c **** 			0x400F0001u, /* Base address: 0x400F0000 Count: 1 */
 300:.\Generated_Source\PSoC4/cyfitter_cfg.c **** 			0x400F322Eu, /* Base address: 0x400F3200 Count: 46 */
 301:.\Generated_Source\PSoC4/cyfitter_cfg.c **** 			0x400F3323u, /* Base address: 0x400F3300 Count: 35 */
 302:.\Generated_Source\PSoC4/cyfitter_cfg.c **** 			0x400F4107u, /* Base address: 0x400F4100 Count: 7 */
 303:.\Generated_Source\PSoC4/cyfitter_cfg.c **** 			0x400F6002u, /* Base address: 0x400F6000 Count: 2 */
 304:.\Generated_Source\PSoC4/cyfitter_cfg.c **** 		};
 305:.\Generated_Source\PSoC4/cyfitter_cfg.c **** 
 306:.\Generated_Source\PSoC4/cyfitter_cfg.c **** 		static const cy_cfg_addrvalue_t CYCODE cy_cfg_data_table[] = {
 307:.\Generated_Source\PSoC4/cyfitter_cfg.c **** 			{0x82u, 0x0Fu},
 308:.\Generated_Source\PSoC4/cyfitter_cfg.c **** 			{0x03u, 0x03u},
 309:.\Generated_Source\PSoC4/cyfitter_cfg.c **** 			{0x07u, 0x0Cu},
 310:.\Generated_Source\PSoC4/cyfitter_cfg.c **** 			{0x0Au, 0x08u},
 311:.\Generated_Source\PSoC4/cyfitter_cfg.c **** 			{0x11u, 0x02u},
 312:.\Generated_Source\PSoC4/cyfitter_cfg.c **** 			{0x16u, 0x0Du},
 313:.\Generated_Source\PSoC4/cyfitter_cfg.c **** 			{0x19u, 0x08u},
 314:.\Generated_Source\PSoC4/cyfitter_cfg.c **** 			{0x1Eu, 0x04u},
 315:.\Generated_Source\PSoC4/cyfitter_cfg.c **** 			{0x22u, 0x01u},
 316:.\Generated_Source\PSoC4/cyfitter_cfg.c **** 			{0x2Eu, 0x02u},
 317:.\Generated_Source\PSoC4/cyfitter_cfg.c **** 			{0x30u, 0x04u},
 318:.\Generated_Source\PSoC4/cyfitter_cfg.c **** 			{0x31u, 0x02u},
 319:.\Generated_Source\PSoC4/cyfitter_cfg.c **** 			{0x32u, 0x02u},
 320:.\Generated_Source\PSoC4/cyfitter_cfg.c **** 			{0x33u, 0x08u},
 321:.\Generated_Source\PSoC4/cyfitter_cfg.c **** 			{0x34u, 0x01u},
 322:.\Generated_Source\PSoC4/cyfitter_cfg.c **** 			{0x35u, 0x04u},
 323:.\Generated_Source\PSoC4/cyfitter_cfg.c **** 			{0x36u, 0x08u},
ARM GAS  C:\Users\MCisek\AppData\Local\Temp\cctnzjAb.s 			page 13


 324:.\Generated_Source\PSoC4/cyfitter_cfg.c **** 			{0x37u, 0x01u},
 325:.\Generated_Source\PSoC4/cyfitter_cfg.c **** 			{0x3Eu, 0x10u},
 326:.\Generated_Source\PSoC4/cyfitter_cfg.c **** 			{0x40u, 0x30u},
 327:.\Generated_Source\PSoC4/cyfitter_cfg.c **** 			{0x41u, 0x05u},
 328:.\Generated_Source\PSoC4/cyfitter_cfg.c **** 			{0x45u, 0xD0u},
 329:.\Generated_Source\PSoC4/cyfitter_cfg.c **** 			{0x46u, 0x02u},
 330:.\Generated_Source\PSoC4/cyfitter_cfg.c **** 			{0x47u, 0x15u},
 331:.\Generated_Source\PSoC4/cyfitter_cfg.c **** 			{0x48u, 0x36u},
 332:.\Generated_Source\PSoC4/cyfitter_cfg.c **** 			{0x49u, 0xFFu},
 333:.\Generated_Source\PSoC4/cyfitter_cfg.c **** 			{0x4Au, 0xFFu},
 334:.\Generated_Source\PSoC4/cyfitter_cfg.c **** 			{0x4Bu, 0xFFu},
 335:.\Generated_Source\PSoC4/cyfitter_cfg.c **** 			{0x4Du, 0xA0u},
 336:.\Generated_Source\PSoC4/cyfitter_cfg.c **** 			{0x4Fu, 0x04u},
 337:.\Generated_Source\PSoC4/cyfitter_cfg.c **** 			{0x50u, 0x18u},
 338:.\Generated_Source\PSoC4/cyfitter_cfg.c **** 			{0x52u, 0x80u},
 339:.\Generated_Source\PSoC4/cyfitter_cfg.c **** 			{0x54u, 0x07u},
 340:.\Generated_Source\PSoC4/cyfitter_cfg.c **** 			{0x58u, 0x04u},
 341:.\Generated_Source\PSoC4/cyfitter_cfg.c **** 			{0x59u, 0x04u},
 342:.\Generated_Source\PSoC4/cyfitter_cfg.c **** 			{0x5Au, 0x04u},
 343:.\Generated_Source\PSoC4/cyfitter_cfg.c **** 			{0x5Bu, 0x04u},
 344:.\Generated_Source\PSoC4/cyfitter_cfg.c **** 			{0x5Fu, 0x01u},
 345:.\Generated_Source\PSoC4/cyfitter_cfg.c **** 			{0x60u, 0x40u},
 346:.\Generated_Source\PSoC4/cyfitter_cfg.c **** 			{0x62u, 0xC0u},
 347:.\Generated_Source\PSoC4/cyfitter_cfg.c **** 			{0x64u, 0x40u},
 348:.\Generated_Source\PSoC4/cyfitter_cfg.c **** 			{0x65u, 0x40u},
 349:.\Generated_Source\PSoC4/cyfitter_cfg.c **** 			{0x66u, 0xC0u},
 350:.\Generated_Source\PSoC4/cyfitter_cfg.c **** 			{0x68u, 0xC0u},
 351:.\Generated_Source\PSoC4/cyfitter_cfg.c **** 			{0x6Au, 0xC0u},
 352:.\Generated_Source\PSoC4/cyfitter_cfg.c **** 			{0x6Cu, 0xC0u},
 353:.\Generated_Source\PSoC4/cyfitter_cfg.c **** 			{0x6Eu, 0xC0u},
 354:.\Generated_Source\PSoC4/cyfitter_cfg.c **** 			{0x06u, 0x04u},
 355:.\Generated_Source\PSoC4/cyfitter_cfg.c **** 			{0x0Du, 0x08u},
 356:.\Generated_Source\PSoC4/cyfitter_cfg.c **** 			{0x0Fu, 0x02u},
 357:.\Generated_Source\PSoC4/cyfitter_cfg.c **** 			{0x16u, 0x80u},
 358:.\Generated_Source\PSoC4/cyfitter_cfg.c **** 			{0x17u, 0x40u},
 359:.\Generated_Source\PSoC4/cyfitter_cfg.c **** 			{0x1Du, 0x08u},
 360:.\Generated_Source\PSoC4/cyfitter_cfg.c **** 			{0x1Eu, 0x08u},
 361:.\Generated_Source\PSoC4/cyfitter_cfg.c **** 			{0x1Fu, 0x81u},
 362:.\Generated_Source\PSoC4/cyfitter_cfg.c **** 			{0x24u, 0x40u},
 363:.\Generated_Source\PSoC4/cyfitter_cfg.c **** 			{0x26u, 0x20u},
 364:.\Generated_Source\PSoC4/cyfitter_cfg.c **** 			{0x27u, 0x22u},
 365:.\Generated_Source\PSoC4/cyfitter_cfg.c **** 			{0x36u, 0x20u},
 366:.\Generated_Source\PSoC4/cyfitter_cfg.c **** 			{0x37u, 0x02u},
 367:.\Generated_Source\PSoC4/cyfitter_cfg.c **** 			{0x3Du, 0x08u},
 368:.\Generated_Source\PSoC4/cyfitter_cfg.c **** 			{0x3Fu, 0x02u},
 369:.\Generated_Source\PSoC4/cyfitter_cfg.c **** 			{0x45u, 0x08u},
 370:.\Generated_Source\PSoC4/cyfitter_cfg.c **** 			{0x4Fu, 0x81u},
 371:.\Generated_Source\PSoC4/cyfitter_cfg.c **** 			{0x55u, 0x04u},
 372:.\Generated_Source\PSoC4/cyfitter_cfg.c **** 			{0x56u, 0x84u},
 373:.\Generated_Source\PSoC4/cyfitter_cfg.c **** 			{0x57u, 0x41u},
 374:.\Generated_Source\PSoC4/cyfitter_cfg.c **** 			{0x5Cu, 0x40u},
 375:.\Generated_Source\PSoC4/cyfitter_cfg.c **** 			{0x5Eu, 0x08u},
 376:.\Generated_Source\PSoC4/cyfitter_cfg.c **** 			{0x5Fu, 0x21u},
 377:.\Generated_Source\PSoC4/cyfitter_cfg.c **** 			{0x77u, 0x40u},
 378:.\Generated_Source\PSoC4/cyfitter_cfg.c **** 			{0x83u, 0x80u},
 379:.\Generated_Source\PSoC4/cyfitter_cfg.c **** 			{0x8Fu, 0x01u},
 380:.\Generated_Source\PSoC4/cyfitter_cfg.c **** 			{0xC0u, 0x40u},
ARM GAS  C:\Users\MCisek\AppData\Local\Temp\cctnzjAb.s 			page 14


 381:.\Generated_Source\PSoC4/cyfitter_cfg.c **** 			{0xC2u, 0xA0u},
 382:.\Generated_Source\PSoC4/cyfitter_cfg.c **** 			{0xC4u, 0x90u},
 383:.\Generated_Source\PSoC4/cyfitter_cfg.c **** 			{0xCCu, 0xA0u},
 384:.\Generated_Source\PSoC4/cyfitter_cfg.c **** 			{0xCEu, 0xC0u},
 385:.\Generated_Source\PSoC4/cyfitter_cfg.c **** 			{0xD0u, 0x40u},
 386:.\Generated_Source\PSoC4/cyfitter_cfg.c **** 			{0xD2u, 0x10u},
 387:.\Generated_Source\PSoC4/cyfitter_cfg.c **** 			{0xD6u, 0xF0u},
 388:.\Generated_Source\PSoC4/cyfitter_cfg.c **** 			{0xE2u, 0x40u},
 389:.\Generated_Source\PSoC4/cyfitter_cfg.c **** 			{0x59u, 0x10u},
 390:.\Generated_Source\PSoC4/cyfitter_cfg.c **** 			{0x63u, 0x08u},
 391:.\Generated_Source\PSoC4/cyfitter_cfg.c **** 			{0x81u, 0x10u},
 392:.\Generated_Source\PSoC4/cyfitter_cfg.c **** 			{0x8Fu, 0x04u},
 393:.\Generated_Source\PSoC4/cyfitter_cfg.c **** 			{0xD4u, 0x80u},
 394:.\Generated_Source\PSoC4/cyfitter_cfg.c **** 			{0xD8u, 0x40u},
 395:.\Generated_Source\PSoC4/cyfitter_cfg.c **** 			{0xE6u, 0x20u},
 396:.\Generated_Source\PSoC4/cyfitter_cfg.c **** 			{0x10u, 0x01u},
 397:.\Generated_Source\PSoC4/cyfitter_cfg.c **** 			{0x11u, 0x01u},
 398:.\Generated_Source\PSoC4/cyfitter_cfg.c **** 		};
 399:.\Generated_Source\PSoC4/cyfitter_cfg.c **** 
 400:.\Generated_Source\PSoC4/cyfitter_cfg.c **** 
 401:.\Generated_Source\PSoC4/cyfitter_cfg.c **** 
 402:.\Generated_Source\PSoC4/cyfitter_cfg.c **** 		CYPACKED typedef struct {
 403:.\Generated_Source\PSoC4/cyfitter_cfg.c **** 			void CYFAR *address;
 404:.\Generated_Source\PSoC4/cyfitter_cfg.c **** 			uint16 size;
 405:.\Generated_Source\PSoC4/cyfitter_cfg.c **** 		} CYPACKED_ATTR cfg_memset_t;
 406:.\Generated_Source\PSoC4/cyfitter_cfg.c **** 
 407:.\Generated_Source\PSoC4/cyfitter_cfg.c **** 		static const cfg_memset_t CYCODE cfg_memset_list [] = {
 408:.\Generated_Source\PSoC4/cyfitter_cfg.c **** 			/* address, size */
 409:.\Generated_Source\PSoC4/cyfitter_cfg.c **** 			{(void CYFAR *)(CYDEV_UDB_P0_U0_BASE), 1024u},
 410:.\Generated_Source\PSoC4/cyfitter_cfg.c **** 			{(void CYFAR *)(CYDEV_UDB_DSI0_BASE), 1024u},
 411:.\Generated_Source\PSoC4/cyfitter_cfg.c **** 		};
 412:.\Generated_Source\PSoC4/cyfitter_cfg.c **** 
 413:.\Generated_Source\PSoC4/cyfitter_cfg.c **** 		uint8 CYDATA i;
 414:.\Generated_Source\PSoC4/cyfitter_cfg.c **** 
 415:.\Generated_Source\PSoC4/cyfitter_cfg.c **** 		/* Zero out critical memory blocks before beginning configuration */
 416:.\Generated_Source\PSoC4/cyfitter_cfg.c **** 		for (i = 0u; i < (sizeof(cfg_memset_list)/sizeof(cfg_memset_list[0])); i++)
 328              		.loc 1 416 0
 329 0112 0024     		mov	r4, #0
 330 0114 10E0     		b	.L14
 331              	.LVL23:
 332              	.L15:
 333              	.LBB4:
 417:.\Generated_Source\PSoC4/cyfitter_cfg.c **** 		{
 418:.\Generated_Source\PSoC4/cyfitter_cfg.c **** 			const cfg_memset_t CYCODE * CYDATA ms = &cfg_memset_list[i];
 419:.\Generated_Source\PSoC4/cyfitter_cfg.c **** 			CYMEMZERO(ms->address, (size_t)(uint32)(ms->size));
 334              		.loc 1 419 0 discriminator 3
 335 0116 3348     		ldr	r0, .L16+4
 336 0118 6300     		lsl	r3, r4, #1
 337 011a 1A19     		add	r2, r3, r4
 338 011c 5200     		lsl	r2, r2, #1
 339 011e 8218     		add	r2, r0, r2
 340 0120 9188     		ldrh	r1, [r2, #4]
 341 0122 1B19     		add	r3, r3, r4
 342 0124 5B00     		lsl	r3, r3, #1
 343 0126 1A5A     		ldrh	r2, [r3, r0]
 344 0128 C318     		add	r3, r0, r3
 345 012a 5888     		ldrh	r0, [r3, #2]
ARM GAS  C:\Users\MCisek\AppData\Local\Temp\cctnzjAb.s 			page 15


 346 012c 0004     		lsl	r0, r0, #16
 347 012e 1043     		orr	r0, r2
 348 0130 FFF7FEFF 		bl	CYMEMZERO
 349              	.LVL24:
 350              	.LBE4:
 416:.\Generated_Source\PSoC4/cyfitter_cfg.c **** 		{
 351              		.loc 1 416 0 discriminator 3
 352 0134 0134     		add	r4, r4, #1
 353              	.LVL25:
 354 0136 E4B2     		uxtb	r4, r4
 355              	.LVL26:
 356              	.L14:
 416:.\Generated_Source\PSoC4/cyfitter_cfg.c **** 		{
 357              		.loc 1 416 0 is_stmt 0 discriminator 1
 358 0138 012C     		cmp	r4, #1
 359 013a ECD9     		bls	.L15
 420:.\Generated_Source\PSoC4/cyfitter_cfg.c **** 		}
 421:.\Generated_Source\PSoC4/cyfitter_cfg.c **** 
 422:.\Generated_Source\PSoC4/cyfitter_cfg.c **** 		cfg_write_bytes32(cy_cfg_addr_table, cy_cfg_data_table);
 360              		.loc 1 422 0 is_stmt 1
 361 013c 2949     		ldr	r1, .L16+4
 362 013e 081C     		mov	r0, r1
 363 0140 0C30     		add	r0, r0, #12
 364 0142 2031     		add	r1, r1, #32
 365 0144 FFF7FEFF 		bl	cfg_write_bytes32
 366              	.LVL27:
 423:.\Generated_Source\PSoC4/cyfitter_cfg.c **** 
 424:.\Generated_Source\PSoC4/cyfitter_cfg.c **** 		/* Perform normal device configuration. Order is not critical for these items. */
 425:.\Generated_Source\PSoC4/cyfitter_cfg.c **** 		CY_SET_XTND_REG16((void CYFAR *)(CYREG_UDB_BCTL0_DRV), 0x0100u);
 367              		.loc 1 425 0
 368 0148 8022     		mov	r2, #128
 369 014a 5200     		lsl	r2, r2, #1
 370 014c 264B     		ldr	r3, .L16+8
 371 014e 1A80     		strh	r2, [r3]
 426:.\Generated_Source\PSoC4/cyfitter_cfg.c **** 		CY_SET_XTND_REG8((void CYFAR *)(CYREG_UDB_BCTL0_DRV + 0x2u), 0x01u);
 372              		.loc 1 426 0
 373 0150 FF3A     		sub	r2, r2, #255
 374 0152 264B     		ldr	r3, .L16+12
 375 0154 1A70     		strb	r2, [r3]
 427:.\Generated_Source\PSoC4/cyfitter_cfg.c **** 
 428:.\Generated_Source\PSoC4/cyfitter_cfg.c **** 		/* HSIOM Starting address: CYDEV_HSIOM_BASE */
 429:.\Generated_Source\PSoC4/cyfitter_cfg.c **** 		CY_SET_XTND_REG32((void CYFAR *)(CYREG_HSIOM_PORT_SEL1), 0x03990300u);
 376              		.loc 1 429 0
 377 0156 264A     		ldr	r2, .L16+16
 378 0158 264B     		ldr	r3, .L16+20
 379 015a 1A60     		str	r2, [r3]
 430:.\Generated_Source\PSoC4/cyfitter_cfg.c **** 		CY_SET_XTND_REG32((void CYFAR *)(CYREG_HSIOM_PORT_SEL3), 0x00EE0000u);
 380              		.loc 1 430 0
 381 015c EE22     		mov	r2, #238
 382 015e 1204     		lsl	r2, r2, #16
 383 0160 254B     		ldr	r3, .L16+24
 384 0162 1A60     		str	r2, [r3]
 431:.\Generated_Source\PSoC4/cyfitter_cfg.c **** 
 432:.\Generated_Source\PSoC4/cyfitter_cfg.c **** 		/* FORCED_HSIOM Starting address: CYDEV_HSIOM_PORT_SEL0 */
 433:.\Generated_Source\PSoC4/cyfitter_cfg.c **** 		CY_SET_XTND_REG32((void CYFAR *)(CYREG_HSIOM_PORT_SEL0), 0x00000000u);
 385              		.loc 1 433 0
 386 0164 0022     		mov	r2, #0
ARM GAS  C:\Users\MCisek\AppData\Local\Temp\cctnzjAb.s 			page 16


 387 0166 254B     		ldr	r3, .L16+28
 388 0168 1A60     		str	r2, [r3]
 434:.\Generated_Source\PSoC4/cyfitter_cfg.c **** 
 435:.\Generated_Source\PSoC4/cyfitter_cfg.c **** 		/* UDB_PA_0 Starting address: CYDEV_UDB_PA0_BASE */
 436:.\Generated_Source\PSoC4/cyfitter_cfg.c **** 		CY_SET_XTND_REG32((void CYFAR *)(CYDEV_UDB_PA0_BASE), 0x00990000u);
 389              		.loc 1 436 0
 390 016a 9923     		mov	r3, #153
 391 016c 1B04     		lsl	r3, r3, #16
 392 016e 244A     		ldr	r2, .L16+32
 393 0170 1360     		str	r3, [r2]
 437:.\Generated_Source\PSoC4/cyfitter_cfg.c **** 
 438:.\Generated_Source\PSoC4/cyfitter_cfg.c **** 		/* UDB_PA_1 Starting address: CYDEV_UDB_PA1_BASE */
 439:.\Generated_Source\PSoC4/cyfitter_cfg.c **** 		CY_SET_XTND_REG32((void CYFAR *)(CYDEV_UDB_PA1_BASE), 0x00990000u);
 394              		.loc 1 439 0
 395 0172 244A     		ldr	r2, .L16+36
 396 0174 1360     		str	r3, [r2]
 440:.\Generated_Source\PSoC4/cyfitter_cfg.c **** 		CY_SET_XTND_REG32((void CYFAR *)(CYREG_UDB_PA1_CFG8), 0x20200000u);
 397              		.loc 1 440 0
 398 0176 2449     		ldr	r1, .L16+40
 399 0178 244A     		ldr	r2, .L16+44
 400 017a 1160     		str	r1, [r2]
 441:.\Generated_Source\PSoC4/cyfitter_cfg.c **** 
 442:.\Generated_Source\PSoC4/cyfitter_cfg.c **** 		/* UDB_PA_2 Starting address: CYDEV_UDB_PA2_BASE */
 443:.\Generated_Source\PSoC4/cyfitter_cfg.c **** 		CY_SET_XTND_REG32((void CYFAR *)(CYDEV_UDB_PA2_BASE), 0x00990000u);
 401              		.loc 1 443 0
 402 017c 244A     		ldr	r2, .L16+48
 403 017e 1360     		str	r3, [r2]
 444:.\Generated_Source\PSoC4/cyfitter_cfg.c **** 
 445:.\Generated_Source\PSoC4/cyfitter_cfg.c **** 		/* UDB_PA_3 Starting address: CYDEV_UDB_PA3_BASE */
 446:.\Generated_Source\PSoC4/cyfitter_cfg.c **** 		CY_SET_XTND_REG32((void CYFAR *)(CYDEV_UDB_PA3_BASE), 0x00990000u);
 404              		.loc 1 446 0
 405 0180 244A     		ldr	r2, .L16+52
 406 0182 1360     		str	r3, [r2]
 447:.\Generated_Source\PSoC4/cyfitter_cfg.c **** 		CY_SET_XTND_REG32((void CYFAR *)(CYREG_UDB_PA3_CFG4), 0xA0A00000u);
 407              		.loc 1 447 0
 408 0184 244A     		ldr	r2, .L16+56
 409 0186 254B     		ldr	r3, .L16+60
 410 0188 1A60     		str	r2, [r3]
 448:.\Generated_Source\PSoC4/cyfitter_cfg.c **** 
 449:.\Generated_Source\PSoC4/cyfitter_cfg.c **** 		/* Enable digital routing */
 450:.\Generated_Source\PSoC4/cyfitter_cfg.c **** 		CY_SET_XTND_REG8((void *)CYREG_UDB_UDBIF_BANK_CTL, CY_GET_XTND_REG8((void *)CYREG_UDB_UDBIF_BANK_
 411              		.loc 1 450 0
 412 018a 254B     		ldr	r3, .L16+64
 413 018c 1978     		ldrb	r1, [r3]
 414 018e 0222     		mov	r2, #2
 415 0190 0A43     		orr	r2, r1
 416 0192 1A70     		strb	r2, [r3]
 451:.\Generated_Source\PSoC4/cyfitter_cfg.c **** 
 452:.\Generated_Source\PSoC4/cyfitter_cfg.c **** 		/* Enable UDB array */
 453:.\Generated_Source\PSoC4/cyfitter_cfg.c **** 		CY_SET_XTND_REG8((void *)CYREG_UDB_UDBIF_WAIT_CFG, (uint8)((CY_GET_XTND_REG8((void *)CYREG_UDB_UD
 417              		.loc 1 453 0
 418 0194 2348     		ldr	r0, .L16+68
 419 0196 0278     		ldrb	r2, [r0]
 420 0198 3C21     		mov	r1, #60
 421 019a 8A43     		bic	r2, r1
 422 019c 2839     		sub	r1, r1, #40
 423 019e 0A43     		orr	r2, r1
ARM GAS  C:\Users\MCisek\AppData\Local\Temp\cctnzjAb.s 			page 17


 424 01a0 0270     		strb	r2, [r0]
 454:.\Generated_Source\PSoC4/cyfitter_cfg.c **** 		CY_SET_XTND_REG8((void *)CYREG_UDB_UDBIF_BANK_CTL, (uint8)(CY_GET_XTND_REG8((void *)CYREG_UDB_UDB
 425              		.loc 1 454 0
 426 01a2 1978     		ldrb	r1, [r3]
 427 01a4 1622     		mov	r2, #22
 428 01a6 0A43     		orr	r2, r1
 429 01a8 1A70     		strb	r2, [r3]
 430              	.LBE3:
 455:.\Generated_Source\PSoC4/cyfitter_cfg.c **** 	}
 456:.\Generated_Source\PSoC4/cyfitter_cfg.c **** 
 457:.\Generated_Source\PSoC4/cyfitter_cfg.c **** 	/* Perform second pass device configuration. These items must be configured in specific order afte
 458:.\Generated_Source\PSoC4/cyfitter_cfg.c **** 	/* IOPINS0_0 Starting address: CYDEV_GPIO_PRT0_BASE */
 459:.\Generated_Source\PSoC4/cyfitter_cfg.c **** 	CY_SET_XTND_REG32((void CYFAR *)(CYREG_GPIO_PRT0_PC), 0x00C36DB6u);
 431              		.loc 1 459 0
 432 01aa 1F4A     		ldr	r2, .L16+72
 433 01ac 1F4B     		ldr	r3, .L16+76
 434 01ae 1A60     		str	r2, [r3]
 460:.\Generated_Source\PSoC4/cyfitter_cfg.c **** 
 461:.\Generated_Source\PSoC4/cyfitter_cfg.c **** 	/* IOPINS0_1 Starting address: CYDEV_GPIO_PRT1_BASE */
 462:.\Generated_Source\PSoC4/cyfitter_cfg.c **** 	CY_SET_XTND_REG32((void CYFAR *)(CYDEV_GPIO_PRT1_BASE), 0x00000064u);
 435              		.loc 1 462 0
 436 01b0 6422     		mov	r2, #100
 437 01b2 1F4B     		ldr	r3, .L16+80
 438 01b4 1A60     		str	r2, [r3]
 463:.\Generated_Source\PSoC4/cyfitter_cfg.c **** 	CY_SET_XTND_REG32((void CYFAR *)(CYREG_GPIO_PRT1_PC), 0x00DB1DB6u);
 439              		.loc 1 463 0
 440 01b6 1F4A     		ldr	r2, .L16+84
 441 01b8 1F4B     		ldr	r3, .L16+88
 442 01ba 1A60     		str	r2, [r3]
 464:.\Generated_Source\PSoC4/cyfitter_cfg.c **** 	CY_SET_XTND_REG32((void CYFAR *)(CYREG_GPIO_PRT1_PC2), 0x00000020u);
 443              		.loc 1 464 0
 444 01bc 2022     		mov	r2, #32
 445 01be 1F4B     		ldr	r3, .L16+92
 446 01c0 1A60     		str	r2, [r3]
 465:.\Generated_Source\PSoC4/cyfitter_cfg.c **** 
 466:.\Generated_Source\PSoC4/cyfitter_cfg.c **** 	/* IOPINS0_2 Starting address: CYDEV_GPIO_PRT2_BASE */
 467:.\Generated_Source\PSoC4/cyfitter_cfg.c **** 	CY_SET_XTND_REG32((void CYFAR *)(CYREG_GPIO_PRT2_PC), 0x00C30000u);
 447              		.loc 1 467 0
 448 01c2 C322     		mov	r2, #195
 449 01c4 1204     		lsl	r2, r2, #16
 450 01c6 1E4B     		ldr	r3, .L16+96
 451 01c8 1A60     		str	r2, [r3]
 468:.\Generated_Source\PSoC4/cyfitter_cfg.c **** 
 469:.\Generated_Source\PSoC4/cyfitter_cfg.c **** 	/* IOPINS0_3 Starting address: CYDEV_GPIO_PRT3_BASE */
 470:.\Generated_Source\PSoC4/cyfitter_cfg.c **** 	CY_SET_XTND_REG32((void CYFAR *)(CYDEV_GPIO_PRT3_BASE), 0x00000030u);
 452              		.loc 1 470 0
 453 01ca 3022     		mov	r2, #48
 454 01cc 1D4B     		ldr	r3, .L16+100
 455 01ce 1A60     		str	r2, [r3]
 471:.\Generated_Source\PSoC4/cyfitter_cfg.c **** 	CY_SET_XTND_REG32((void CYFAR *)(CYREG_GPIO_PRT3_PC), 0x00264240u);
 456              		.loc 1 471 0
 457 01d0 1D4A     		ldr	r2, .L16+104
 458 01d2 1E4B     		ldr	r3, .L16+108
 459 01d4 1A60     		str	r2, [r3]
 472:.\Generated_Source\PSoC4/cyfitter_cfg.c **** 
 473:.\Generated_Source\PSoC4/cyfitter_cfg.c **** 	/* Setup clocks based on selections from Clock DWR */
 474:.\Generated_Source\PSoC4/cyfitter_cfg.c **** 	ClockSetup();
ARM GAS  C:\Users\MCisek\AppData\Local\Temp\cctnzjAb.s 			page 18


 460              		.loc 1 474 0
 461 01d6 FFF713FF 		bl	ClockSetup
 462              	.LVL28:
 475:.\Generated_Source\PSoC4/cyfitter_cfg.c **** 
 476:.\Generated_Source\PSoC4/cyfitter_cfg.c **** 	/* Perform basic analog initialization to defaults */
 477:.\Generated_Source\PSoC4/cyfitter_cfg.c **** 	AnalogSetDefault();
 463              		.loc 1 477 0
 464 01da FFF7FEFF 		bl	AnalogSetDefault
 465              	.LVL29:
 478:.\Generated_Source\PSoC4/cyfitter_cfg.c **** 
 479:.\Generated_Source\PSoC4/cyfitter_cfg.c **** }
 466              		.loc 1 479 0
 467              		@ sp needed
 468              	.LVL30:
 469 01de 10BD     		pop	{r4, pc}
 470              	.L17:
 471              		.align	2
 472              	.L16:
 473 01e0 6CF02E40 		.word	1076818028
 474 01e4 00000000 		.word	.LANCHOR0
 475 01e8 00600F40 		.word	1074749440
 476 01ec 02600F40 		.word	1074749442
 477 01f0 00039903 		.word	60359424
 478 01f4 00010240 		.word	1073873152
 479 01f8 00030240 		.word	1073873664
 480 01fc 00000240 		.word	1073872896
 481 0200 00500F40 		.word	1074745344
 482 0204 10500F40 		.word	1074745360
 483 0208 00002020 		.word	538968064
 484 020c 18500F40 		.word	1074745368
 485 0210 20500F40 		.word	1074745376
 486 0214 30500F40 		.word	1074745392
 487 0218 0000A0A0 		.word	-1600126976
 488 021c 34500F40 		.word	1074745396
 489 0220 00700F40 		.word	1074753536
 490 0224 01700F40 		.word	1074753537
 491 0228 B66DC300 		.word	12807606
 492 022c 08000440 		.word	1074003976
 493 0230 00010440 		.word	1074004224
 494 0234 B61DDB00 		.word	14359990
 495 0238 08010440 		.word	1074004232
 496 023c 18010440 		.word	1074004248
 497 0240 08020440 		.word	1074004488
 498 0244 00030440 		.word	1074004736
 499 0248 40422600 		.word	2507328
 500 024c 08030440 		.word	1074004744
 501              		.cfi_endproc
 502              	.LFE8:
 503              		.size	cyfitter_cfg, .-cyfitter_cfg
 504              		.section	.rodata
 505              		.align	2
 506              		.set	.LANCHOR0,. + 0
 507              		.type	cfg_memset_list.4765, %object
 508              		.size	cfg_memset_list.4765, 12
 509              	cfg_memset_list.4765:
 510 0000 00300F40 		.word	1074737152
 511 0004 0004     		.short	1024
ARM GAS  C:\Users\MCisek\AppData\Local\Temp\cctnzjAb.s 			page 19


 512 0006 00400F40 		.4byte	1074741248
 513 000a 0004     		.short	1024
 514              		.type	cy_cfg_addr_table.4759, %object
 515              		.size	cy_cfg_addr_table.4759, 20
 516              	cy_cfg_addr_table.4759:
 517 000c 01000F40 		.word	1074724865
 518 0010 2E320F40 		.word	1074737710
 519 0014 23330F40 		.word	1074737955
 520 0018 07410F40 		.word	1074741511
 521 001c 02600F40 		.word	1074749442
 522              		.type	cy_cfg_data_table.4760, %object
 523              		.size	cy_cfg_data_table.4760, 182
 524              	cy_cfg_data_table.4760:
 525 0020 82       		.byte	-126
 526 0021 0F       		.byte	15
 527 0022 03       		.byte	3
 528 0023 03       		.byte	3
 529 0024 07       		.byte	7
 530 0025 0C       		.byte	12
 531 0026 0A       		.byte	10
 532 0027 08       		.byte	8
 533 0028 11       		.byte	17
 534 0029 02       		.byte	2
 535 002a 16       		.byte	22
 536 002b 0D       		.byte	13
 537 002c 19       		.byte	25
 538 002d 08       		.byte	8
 539 002e 1E       		.byte	30
 540 002f 04       		.byte	4
 541 0030 22       		.byte	34
 542 0031 01       		.byte	1
 543 0032 2E       		.byte	46
 544 0033 02       		.byte	2
 545 0034 30       		.byte	48
 546 0035 04       		.byte	4
 547 0036 31       		.byte	49
 548 0037 02       		.byte	2
 549 0038 32       		.byte	50
 550 0039 02       		.byte	2
 551 003a 33       		.byte	51
 552 003b 08       		.byte	8
 553 003c 34       		.byte	52
 554 003d 01       		.byte	1
 555 003e 35       		.byte	53
 556 003f 04       		.byte	4
 557 0040 36       		.byte	54
 558 0041 08       		.byte	8
 559 0042 37       		.byte	55
 560 0043 01       		.byte	1
 561 0044 3E       		.byte	62
 562 0045 10       		.byte	16
 563 0046 40       		.byte	64
 564 0047 30       		.byte	48
 565 0048 41       		.byte	65
 566 0049 05       		.byte	5
 567 004a 45       		.byte	69
 568 004b D0       		.byte	-48
ARM GAS  C:\Users\MCisek\AppData\Local\Temp\cctnzjAb.s 			page 20


 569 004c 46       		.byte	70
 570 004d 02       		.byte	2
 571 004e 47       		.byte	71
 572 004f 15       		.byte	21
 573 0050 48       		.byte	72
 574 0051 36       		.byte	54
 575 0052 49       		.byte	73
 576 0053 FF       		.byte	-1
 577 0054 4A       		.byte	74
 578 0055 FF       		.byte	-1
 579 0056 4B       		.byte	75
 580 0057 FF       		.byte	-1
 581 0058 4D       		.byte	77
 582 0059 A0       		.byte	-96
 583 005a 4F       		.byte	79
 584 005b 04       		.byte	4
 585 005c 50       		.byte	80
 586 005d 18       		.byte	24
 587 005e 52       		.byte	82
 588 005f 80       		.byte	-128
 589 0060 54       		.byte	84
 590 0061 07       		.byte	7
 591 0062 58       		.byte	88
 592 0063 04       		.byte	4
 593 0064 59       		.byte	89
 594 0065 04       		.byte	4
 595 0066 5A       		.byte	90
 596 0067 04       		.byte	4
 597 0068 5B       		.byte	91
 598 0069 04       		.byte	4
 599 006a 5F       		.byte	95
 600 006b 01       		.byte	1
 601 006c 60       		.byte	96
 602 006d 40       		.byte	64
 603 006e 62       		.byte	98
 604 006f C0       		.byte	-64
 605 0070 64       		.byte	100
 606 0071 40       		.byte	64
 607 0072 65       		.byte	101
 608 0073 40       		.byte	64
 609 0074 66       		.byte	102
 610 0075 C0       		.byte	-64
 611 0076 68       		.byte	104
 612 0077 C0       		.byte	-64
 613 0078 6A       		.byte	106
 614 0079 C0       		.byte	-64
 615 007a 6C       		.byte	108
 616 007b C0       		.byte	-64
 617 007c 6E       		.byte	110
 618 007d C0       		.byte	-64
 619 007e 06       		.byte	6
 620 007f 04       		.byte	4
 621 0080 0D       		.byte	13
 622 0081 08       		.byte	8
 623 0082 0F       		.byte	15
 624 0083 02       		.byte	2
 625 0084 16       		.byte	22
ARM GAS  C:\Users\MCisek\AppData\Local\Temp\cctnzjAb.s 			page 21


 626 0085 80       		.byte	-128
 627 0086 17       		.byte	23
 628 0087 40       		.byte	64
 629 0088 1D       		.byte	29
 630 0089 08       		.byte	8
 631 008a 1E       		.byte	30
 632 008b 08       		.byte	8
 633 008c 1F       		.byte	31
 634 008d 81       		.byte	-127
 635 008e 24       		.byte	36
 636 008f 40       		.byte	64
 637 0090 26       		.byte	38
 638 0091 20       		.byte	32
 639 0092 27       		.byte	39
 640 0093 22       		.byte	34
 641 0094 36       		.byte	54
 642 0095 20       		.byte	32
 643 0096 37       		.byte	55
 644 0097 02       		.byte	2
 645 0098 3D       		.byte	61
 646 0099 08       		.byte	8
 647 009a 3F       		.byte	63
 648 009b 02       		.byte	2
 649 009c 45       		.byte	69
 650 009d 08       		.byte	8
 651 009e 4F       		.byte	79
 652 009f 81       		.byte	-127
 653 00a0 55       		.byte	85
 654 00a1 04       		.byte	4
 655 00a2 56       		.byte	86
 656 00a3 84       		.byte	-124
 657 00a4 57       		.byte	87
 658 00a5 41       		.byte	65
 659 00a6 5C       		.byte	92
 660 00a7 40       		.byte	64
 661 00a8 5E       		.byte	94
 662 00a9 08       		.byte	8
 663 00aa 5F       		.byte	95
 664 00ab 21       		.byte	33
 665 00ac 77       		.byte	119
 666 00ad 40       		.byte	64
 667 00ae 83       		.byte	-125
 668 00af 80       		.byte	-128
 669 00b0 8F       		.byte	-113
 670 00b1 01       		.byte	1
 671 00b2 C0       		.byte	-64
 672 00b3 40       		.byte	64
 673 00b4 C2       		.byte	-62
 674 00b5 A0       		.byte	-96
 675 00b6 C4       		.byte	-60
 676 00b7 90       		.byte	-112
 677 00b8 CC       		.byte	-52
 678 00b9 A0       		.byte	-96
 679 00ba CE       		.byte	-50
 680 00bb C0       		.byte	-64
 681 00bc D0       		.byte	-48
 682 00bd 40       		.byte	64
ARM GAS  C:\Users\MCisek\AppData\Local\Temp\cctnzjAb.s 			page 22


 683 00be D2       		.byte	-46
 684 00bf 10       		.byte	16
 685 00c0 D6       		.byte	-42
 686 00c1 F0       		.byte	-16
 687 00c2 E2       		.byte	-30
 688 00c3 40       		.byte	64
 689 00c4 59       		.byte	89
 690 00c5 10       		.byte	16
 691 00c6 63       		.byte	99
 692 00c7 08       		.byte	8
 693 00c8 81       		.byte	-127
 694 00c9 10       		.byte	16
 695 00ca 8F       		.byte	-113
 696 00cb 04       		.byte	4
 697 00cc D4       		.byte	-44
 698 00cd 80       		.byte	-128
 699 00ce D8       		.byte	-40
 700 00cf 40       		.byte	64
 701 00d0 E6       		.byte	-26
 702 00d1 20       		.byte	32
 703 00d2 10       		.byte	16
 704 00d3 01       		.byte	1
 705 00d4 11       		.byte	17
 706 00d5 01       		.byte	1
 707 00d6 0000     		.text
 708              	.Letext0:
 709              		.file 2 "c:\\program files (x86)\\cypress\\psoc creator\\3.3\\psoc creator\\import\\gnu\\arm\\4.9.
 710              		.file 3 ".\\Generated_Source\\PSoC4\\cytypes.h"
 711              		.file 4 ".\\Generated_Source\\PSoC4\\CyLFClk.h"
 712              		.file 5 ".\\Generated_Source\\PSoC4\\CyLib.h"