ARM GAS  C:\Users\MCisek\AppData\Local\Temp\ccxCumXt.s 			page 1


   1              		.cpu cortex-m0
   2              		.fpu softvfp
   3              		.eabi_attribute 20, 1
   4              		.eabi_attribute 21, 1
   5              		.eabi_attribute 23, 3
   6              		.eabi_attribute 24, 1
   7              		.eabi_attribute 25, 1
   8              		.eabi_attribute 26, 1
   9              		.eabi_attribute 30, 1
  10              		.eabi_attribute 34, 0
  11              		.eabi_attribute 18, 4
  12              		.code	16
  13              		.file	"leds_disp.c"
  14              		.text
  15              	.Ltext0:
  16              		.cfi_sections	.debug_frame
  17              		.section	.text.turnLedsOff,"ax",%progbits
  18              		.align	2
  19              		.global	turnLedsOff
  20              		.code	16
  21              		.thumb_func
  22              		.type	turnLedsOff, %function
  23              	turnLedsOff:
  24              	.LFB35:
  25              		.file 1 ".\\leds_disp.c"
   1:.\leds_disp.c **** /* ========================================
   2:.\leds_disp.c ****  *
   3:.\leds_disp.c ****  * Copyright YOUR COMPANY, THE YEAR
   4:.\leds_disp.c ****  * All Rights Reserved
   5:.\leds_disp.c ****  * UNPUBLISHED, LICENSED SOFTWARE.
   6:.\leds_disp.c ****  *
   7:.\leds_disp.c ****  * CONFIDENTIAL AND PROPRIETARY INFORMATION
   8:.\leds_disp.c ****  * WHICH IS THE PROPERTY OF your company.
   9:.\leds_disp.c ****  *
  10:.\leds_disp.c ****  * ========================================
  11:.\leds_disp.c **** */
  12:.\leds_disp.c **** #include <project.h>
  13:.\leds_disp.c **** #include <leds_disp.h>
  14:.\leds_disp.c **** 
  15:.\leds_disp.c **** uint8 i = 0;
  16:.\leds_disp.c **** 
  17:.\leds_disp.c **** void turnLedsOff()
  18:.\leds_disp.c **** {
  26              		.loc 1 18 0
  27              		.cfi_startproc
  28 0000 08B5     		push	{r3, lr}
  29              		.cfi_def_cfa_offset 8
  30              		.cfi_offset 3, -8
  31              		.cfi_offset 14, -4
  19:.\leds_disp.c ****     LED0_Write(1u);
  32              		.loc 1 19 0
  33 0002 0120     		mov	r0, #1
  34 0004 FFF7FEFF 		bl	LED0_Write
  35              	.LVL0:
  20:.\leds_disp.c ****     LED1_Write(1u);
  36              		.loc 1 20 0
  37 0008 0120     		mov	r0, #1
ARM GAS  C:\Users\MCisek\AppData\Local\Temp\ccxCumXt.s 			page 2


  38 000a FFF7FEFF 		bl	LED1_Write
  39              	.LVL1:
  21:.\leds_disp.c ****     LED2_Write(1u);
  40              		.loc 1 21 0
  41 000e 0120     		mov	r0, #1
  42 0010 FFF7FEFF 		bl	LED2_Write
  43              	.LVL2:
  22:.\leds_disp.c ****     LED3_Write(1u);
  44              		.loc 1 22 0
  45 0014 0120     		mov	r0, #1
  46 0016 FFF7FEFF 		bl	LED3_Write
  47              	.LVL3:
  23:.\leds_disp.c ****     LED4_Write(1u);
  48              		.loc 1 23 0
  49 001a 0120     		mov	r0, #1
  50 001c FFF7FEFF 		bl	LED4_Write
  51              	.LVL4:
  24:.\leds_disp.c ****     LED5_Write(1u);
  52              		.loc 1 24 0
  53 0020 0120     		mov	r0, #1
  54 0022 FFF7FEFF 		bl	LED5_Write
  55              	.LVL5:
  25:.\leds_disp.c ****     LED6_Write(1u);
  56              		.loc 1 25 0
  57 0026 0120     		mov	r0, #1
  58 0028 FFF7FEFF 		bl	LED6_Write
  59              	.LVL6:
  26:.\leds_disp.c ****     GPIO_0_Write(1u);
  60              		.loc 1 26 0
  61 002c 0120     		mov	r0, #1
  62 002e FFF7FEFF 		bl	GPIO_0_Write
  63              	.LVL7:
  27:.\leds_disp.c ****     GPIO_1_Write(1u);
  64              		.loc 1 27 0
  65 0032 0120     		mov	r0, #1
  66 0034 FFF7FEFF 		bl	GPIO_1_Write
  67              	.LVL8:
  28:.\leds_disp.c **** }
  68              		.loc 1 28 0
  69              		@ sp needed
  70 0038 08BD     		pop	{r3, pc}
  71              		.cfi_endproc
  72              	.LFE35:
  73              		.size	turnLedsOff, .-turnLedsOff
  74 003a C046     		.section	.text.turnLedsOn,"ax",%progbits
  75              		.align	2
  76              		.global	turnLedsOn
  77              		.code	16
  78              		.thumb_func
  79              		.type	turnLedsOn, %function
  80              	turnLedsOn:
  81              	.LFB36:
  29:.\leds_disp.c **** 
  30:.\leds_disp.c **** void turnLedsOn()
  31:.\leds_disp.c **** {
  82              		.loc 1 31 0
  83              		.cfi_startproc
ARM GAS  C:\Users\MCisek\AppData\Local\Temp\ccxCumXt.s 			page 3


  84 0000 08B5     		push	{r3, lr}
  85              		.cfi_def_cfa_offset 8
  86              		.cfi_offset 3, -8
  87              		.cfi_offset 14, -4
  32:.\leds_disp.c ****     LED0_Write(0u);
  88              		.loc 1 32 0
  89 0002 0020     		mov	r0, #0
  90 0004 FFF7FEFF 		bl	LED0_Write
  91              	.LVL9:
  33:.\leds_disp.c ****     LED1_Write(0u);
  92              		.loc 1 33 0
  93 0008 0020     		mov	r0, #0
  94 000a FFF7FEFF 		bl	LED1_Write
  95              	.LVL10:
  34:.\leds_disp.c ****     LED2_Write(0u);
  96              		.loc 1 34 0
  97 000e 0020     		mov	r0, #0
  98 0010 FFF7FEFF 		bl	LED2_Write
  99              	.LVL11:
  35:.\leds_disp.c ****     LED3_Write(0u);
 100              		.loc 1 35 0
 101 0014 0020     		mov	r0, #0
 102 0016 FFF7FEFF 		bl	LED3_Write
 103              	.LVL12:
  36:.\leds_disp.c ****     LED4_Write(0u);
 104              		.loc 1 36 0
 105 001a 0020     		mov	r0, #0
 106 001c FFF7FEFF 		bl	LED4_Write
 107              	.LVL13:
  37:.\leds_disp.c ****     LED5_Write(0u);
 108              		.loc 1 37 0
 109 0020 0020     		mov	r0, #0
 110 0022 FFF7FEFF 		bl	LED5_Write
 111              	.LVL14:
  38:.\leds_disp.c ****     LED6_Write(0u);
 112              		.loc 1 38 0
 113 0026 0020     		mov	r0, #0
 114 0028 FFF7FEFF 		bl	LED6_Write
 115              	.LVL15:
  39:.\leds_disp.c ****     GPIO_0_Write(0u);
 116              		.loc 1 39 0
 117 002c 0020     		mov	r0, #0
 118 002e FFF7FEFF 		bl	GPIO_0_Write
 119              	.LVL16:
  40:.\leds_disp.c ****     GPIO_1_Write(0u);
 120              		.loc 1 40 0
 121 0032 0020     		mov	r0, #0
 122 0034 FFF7FEFF 		bl	GPIO_1_Write
 123              	.LVL17:
  41:.\leds_disp.c **** }
 124              		.loc 1 41 0
 125              		@ sp needed
 126 0038 08BD     		pop	{r3, pc}
 127              		.cfi_endproc
 128              	.LFE36:
 129              		.size	turnLedsOn, .-turnLedsOn
 130 003a C046     		.section	.text.nightRider,"ax",%progbits
ARM GAS  C:\Users\MCisek\AppData\Local\Temp\ccxCumXt.s 			page 4


 131              		.align	2
 132              		.global	nightRider
 133              		.code	16
 134              		.thumb_func
 135              		.type	nightRider, %function
 136              	nightRider:
 137              	.LFB37:
  42:.\leds_disp.c **** 
  43:.\leds_disp.c **** void nightRider(uint8 i)
  44:.\leds_disp.c **** {
 138              		.loc 1 44 0
 139              		.cfi_startproc
 140              	.LVL18:
 141 0000 10B5     		push	{r4, lr}
 142              		.cfi_def_cfa_offset 8
 143              		.cfi_offset 4, -8
 144              		.cfi_offset 14, -4
 145 0002 041C     		mov	r4, r0
  45:.\leds_disp.c ****     turnLedsOff();
 146              		.loc 1 45 0
 147 0004 FFF7FEFF 		bl	turnLedsOff
 148              	.LVL19:
  46:.\leds_disp.c ****     switch(i){
 149              		.loc 1 46 0
 150 0008 0D2C     		cmp	r4, #13
 151 000a 34D8     		bhi	.L3
 152 000c A400     		lsl	r4, r4, #2
 153 000e 1A4B     		ldr	r3, .L14
 154 0010 1B59     		ldr	r3, [r3, r4]
 155 0012 9F46     		mov	pc, r3
 156              		.section	.rodata
 157              		.align	2
 158              	.L6:
 159 0000 14000000 		.word	.L5
 160 0004 1C000000 		.word	.L7
 161 0008 2A000000 		.word	.L8
 162 000c 38000000 		.word	.L9
 163 0010 46000000 		.word	.L10
 164 0014 54000000 		.word	.L11
 165 0018 62000000 		.word	.L12
 166 001c 70000000 		.word	.L13
 167 0020 62000000 		.word	.L12
 168 0024 54000000 		.word	.L11
 169 0028 46000000 		.word	.L10
 170 002c 38000000 		.word	.L9
 171 0030 2A000000 		.word	.L8
 172 0034 1C000000 		.word	.L7
 173              		.section	.text.nightRider
 174              	.L5:
  47:.\leds_disp.c ****         case 0:
  48:.\leds_disp.c ****             LED4_Write(0u);
 175              		.loc 1 48 0
 176 0014 0020     		mov	r0, #0
 177 0016 FFF7FEFF 		bl	LED4_Write
 178              	.LVL20:
  49:.\leds_disp.c ****             break;
 179              		.loc 1 49 0
ARM GAS  C:\Users\MCisek\AppData\Local\Temp\ccxCumXt.s 			page 5


 180 001a 2CE0     		b	.L3
 181              	.L7:
  50:.\leds_disp.c ****         case 1: case 13:
  51:.\leds_disp.c ****             LED4_Write(0u);
 182              		.loc 1 51 0
 183 001c 0020     		mov	r0, #0
 184 001e FFF7FEFF 		bl	LED4_Write
 185              	.LVL21:
  52:.\leds_disp.c ****             LED2_Write(0u);
 186              		.loc 1 52 0
 187 0022 0020     		mov	r0, #0
 188 0024 FFF7FEFF 		bl	LED2_Write
 189              	.LVL22:
  53:.\leds_disp.c ****             break;
 190              		.loc 1 53 0
 191 0028 25E0     		b	.L3
 192              	.L8:
  54:.\leds_disp.c ****         case 2: case 12:
  55:.\leds_disp.c ****             LED2_Write(0u);
 193              		.loc 1 55 0
 194 002a 0020     		mov	r0, #0
 195 002c FFF7FEFF 		bl	LED2_Write
 196              	.LVL23:
  56:.\leds_disp.c ****             LED0_Write(0u);
 197              		.loc 1 56 0
 198 0030 0020     		mov	r0, #0
 199 0032 FFF7FEFF 		bl	LED0_Write
 200              	.LVL24:
  57:.\leds_disp.c ****             break;
 201              		.loc 1 57 0
 202 0036 1EE0     		b	.L3
 203              	.L9:
  58:.\leds_disp.c ****         case 3: case 11:
  59:.\leds_disp.c ****             LED0_Write(0u);
 204              		.loc 1 59 0
 205 0038 0020     		mov	r0, #0
 206 003a FFF7FEFF 		bl	LED0_Write
 207              	.LVL25:
  60:.\leds_disp.c ****             LED1_Write(0u);
 208              		.loc 1 60 0
 209 003e 0020     		mov	r0, #0
 210 0040 FFF7FEFF 		bl	LED1_Write
 211              	.LVL26:
  61:.\leds_disp.c ****             break;
 212              		.loc 1 61 0
 213 0044 17E0     		b	.L3
 214              	.L10:
  62:.\leds_disp.c ****         case 4: case 10:
  63:.\leds_disp.c ****             LED1_Write(0u);
 215              		.loc 1 63 0
 216 0046 0020     		mov	r0, #0
 217 0048 FFF7FEFF 		bl	LED1_Write
 218              	.LVL27:
  64:.\leds_disp.c ****             LED3_Write(0u);
 219              		.loc 1 64 0
 220 004c 0020     		mov	r0, #0
 221 004e FFF7FEFF 		bl	LED3_Write
ARM GAS  C:\Users\MCisek\AppData\Local\Temp\ccxCumXt.s 			page 6


 222              	.LVL28:
  65:.\leds_disp.c ****             break;
 223              		.loc 1 65 0
 224 0052 10E0     		b	.L3
 225              	.L11:
  66:.\leds_disp.c ****         case 5: case 9:
  67:.\leds_disp.c ****             LED3_Write(0u);
 226              		.loc 1 67 0
 227 0054 0020     		mov	r0, #0
 228 0056 FFF7FEFF 		bl	LED3_Write
 229              	.LVL29:
  68:.\leds_disp.c ****             LED5_Write(0u);
 230              		.loc 1 68 0
 231 005a 0020     		mov	r0, #0
 232 005c FFF7FEFF 		bl	LED5_Write
 233              	.LVL30:
  69:.\leds_disp.c ****             break;
 234              		.loc 1 69 0
 235 0060 09E0     		b	.L3
 236              	.L12:
  70:.\leds_disp.c ****         case 6: case 8:
  71:.\leds_disp.c ****             LED5_Write(0u);
 237              		.loc 1 71 0
 238 0062 0020     		mov	r0, #0
 239 0064 FFF7FEFF 		bl	LED5_Write
 240              	.LVL31:
  72:.\leds_disp.c ****             LED6_Write(0u);
 241              		.loc 1 72 0
 242 0068 0020     		mov	r0, #0
 243 006a FFF7FEFF 		bl	LED6_Write
 244              	.LVL32:
  73:.\leds_disp.c ****             break;
 245              		.loc 1 73 0
 246 006e 02E0     		b	.L3
 247              	.L13:
  74:.\leds_disp.c ****         case 7:
  75:.\leds_disp.c ****             LED6_Write(0u);
 248              		.loc 1 75 0
 249 0070 0020     		mov	r0, #0
 250 0072 FFF7FEFF 		bl	LED6_Write
 251              	.LVL33:
 252              	.L3:
  76:.\leds_disp.c ****             break;
  77:.\leds_disp.c ****         default:
  78:.\leds_disp.c ****             break;
  79:.\leds_disp.c ****     }
  80:.\leds_disp.c **** }
 253              		.loc 1 80 0
 254              		@ sp needed
 255 0076 10BD     		pop	{r4, pc}
 256              	.L15:
 257              		.align	2
 258              	.L14:
 259 0078 00000000 		.word	.L6
 260              		.cfi_endproc
 261              	.LFE37:
 262              		.size	nightRider, .-nightRider
ARM GAS  C:\Users\MCisek\AppData\Local\Temp\ccxCumXt.s 			page 7


 263              		.section	.text.LedInterruptHandler,"ax",%progbits
 264              		.align	2
 265              		.global	LedInterruptHandler
 266              		.code	16
 267              		.thumb_func
 268              		.type	LedInterruptHandler, %function
 269              	LedInterruptHandler:
 270              	.LFB38:
  81:.\leds_disp.c **** 
  82:.\leds_disp.c **** int j=0;
  83:.\leds_disp.c **** CY_ISR(LedInterruptHandler)
  84:.\leds_disp.c **** {
 271              		.loc 1 84 0
 272              		.cfi_startproc
 273 0000 10B5     		push	{r4, lr}
 274              		.cfi_def_cfa_offset 8
 275              		.cfi_offset 4, -8
 276              		.cfi_offset 14, -4
  85:.\leds_disp.c ****     nightRider(i);
 277              		.loc 1 85 0
 278 0002 094C     		ldr	r4, .L18
 279 0004 2078     		ldrb	r0, [r4]
 280 0006 FFF7FEFF 		bl	nightRider
 281              	.LVL34:
  86:.\leds_disp.c ****     i++;
 282              		.loc 1 86 0
 283 000a 2378     		ldrb	r3, [r4]
 284 000c 0133     		add	r3, r3, #1
 285 000e DBB2     		uxtb	r3, r3
 286 0010 2370     		strb	r3, [r4]
  87:.\leds_disp.c ****     if(i==14)
 287              		.loc 1 87 0
 288 0012 0E2B     		cmp	r3, #14
 289 0014 02D1     		bne	.L17
  88:.\leds_disp.c ****         i=0;
 290              		.loc 1 88 0
 291 0016 0022     		mov	r2, #0
 292 0018 034B     		ldr	r3, .L18
 293 001a 1A70     		strb	r2, [r3]
 294              	.L17:
  89:.\leds_disp.c ****    
  90:.\leds_disp.c ****     led_isr_ClearPending();
 295              		.loc 1 90 0
 296 001c FFF7FEFF 		bl	led_isr_ClearPending
 297              	.LVL35:
  91:.\leds_disp.c ****     Timer_led_isr_ClearInterrupt(Timer_led_isr_INTR_MASK_TC);
 298              		.loc 1 91 0
 299 0020 0120     		mov	r0, #1
 300 0022 FFF7FEFF 		bl	Timer_led_isr_ClearInterrupt
 301              	.LVL36:
  92:.\leds_disp.c **** }
 302              		.loc 1 92 0
 303              		@ sp needed
 304 0026 10BD     		pop	{r4, pc}
 305              	.L19:
 306              		.align	2
 307              	.L18:
ARM GAS  C:\Users\MCisek\AppData\Local\Temp\ccxCumXt.s 			page 8


 308 0028 00000000 		.word	.LANCHOR0
 309              		.cfi_endproc
 310              	.LFE38:
 311              		.size	LedInterruptHandler, .-LedInterruptHandler
 312              		.section	.text.initLeds,"ax",%progbits
 313              		.align	2
 314              		.global	initLeds
 315              		.code	16
 316              		.thumb_func
 317              		.type	initLeds, %function
 318              	initLeds:
 319              	.LFB39:
  93:.\leds_disp.c **** 
  94:.\leds_disp.c **** void initLeds()
  95:.\leds_disp.c **** {
 320              		.loc 1 95 0
 321              		.cfi_startproc
 322 0000 08B5     		push	{r3, lr}
 323              		.cfi_def_cfa_offset 8
 324              		.cfi_offset 3, -8
 325              		.cfi_offset 14, -4
  96:.\leds_disp.c ****     led_isr_StartEx(LedInterruptHandler);
 326              		.loc 1 96 0
 327 0002 0348     		ldr	r0, .L21
 328 0004 FFF7FEFF 		bl	led_isr_StartEx
 329              	.LVL37:
  97:.\leds_disp.c ****     Timer_led_isr_Start();
 330              		.loc 1 97 0
 331 0008 FFF7FEFF 		bl	Timer_led_isr_Start
 332              	.LVL38:
  98:.\leds_disp.c **** }
 333              		.loc 1 98 0
 334              		@ sp needed
 335 000c 08BD     		pop	{r3, pc}
 336              	.L22:
 337 000e C046     		.align	2
 338              	.L21:
 339 0010 00000000 		.word	LedInterruptHandler
 340              		.cfi_endproc
 341              	.LFE39:
 342              		.size	initLeds, .-initLeds
 343              		.global	j
 344              		.global	i
 345              		.bss
 346              		.align	2
 347              		.set	.LANCHOR0,. + 0
 348              		.type	i, %object
 349              		.size	i, 1
 350              	i:
 351 0000 00       		.space	1
 352 0001 000000   		.space	3
 353              		.type	j, %object
 354              		.size	j, 4
 355              	j:
 356 0004 00000000 		.space	4
 357              		.text
 358              	.Letext0:
ARM GAS  C:\Users\MCisek\AppData\Local\Temp\ccxCumXt.s 			page 9


 359              		.file 2 "Generated_Source\\PSoC4/cytypes.h"
 360              		.file 3 "Generated_Source\\PSoC4/LED0.h"
 361              		.file 4 "Generated_Source\\PSoC4/LED1.h"
 362              		.file 5 "Generated_Source\\PSoC4/LED2.h"
 363              		.file 6 "Generated_Source\\PSoC4/LED3.h"
 364              		.file 7 "Generated_Source\\PSoC4/LED4.h"
 365              		.file 8 "Generated_Source\\PSoC4/LED5.h"
 366              		.file 9 "Generated_Source\\PSoC4/LED6.h"
 367              		.file 10 "Generated_Source\\PSoC4/GPIO_0.h"
 368              		.file 11 "Generated_Source\\PSoC4/GPIO_1.h"
 369              		.file 12 "Generated_Source\\PSoC4/Timer_led_isr.h"
 370              		.file 13 "Generated_Source\\PSoC4/led_isr.h"