ARM GAS  C:\Users\MCisek\AppData\Local\Temp\ccZZamMD.s 			page 1


   1              		.cpu cortex-m0
   2              		.fpu softvfp
   3              		.eabi_attribute 20, 1
   4              		.eabi_attribute 21, 1
   5              		.eabi_attribute 23, 3
   6              		.eabi_attribute 24, 1
   7              		.eabi_attribute 25, 1
   8              		.eabi_attribute 26, 1
   9              		.eabi_attribute 30, 1
  10              		.eabi_attribute 34, 0
  11              		.eabi_attribute 18, 4
  12              		.code	16
  13              		.file	"leds.c"
  14              		.text
  15              	.Ltext0:
  16              		.cfi_sections	.debug_frame
  17              		.section	.text.turnLedsOff,"ax",%progbits
  18              		.align	2
  19              		.global	turnLedsOff
  20              		.code	16
  21              		.thumb_func
  22              		.type	turnLedsOff, %function
  23              	turnLedsOff:
  24              	.LFB35:
  25              		.file 1 ".\\leds.c"
   1:.\leds.c      **** /* ========================================
   2:.\leds.c      ****  *
   3:.\leds.c      ****  * Copyright YOUR COMPANY, THE YEAR
   4:.\leds.c      ****  * All Rights Reserved
   5:.\leds.c      ****  * UNPUBLISHED, LICENSED SOFTWARE.
   6:.\leds.c      ****  *
   7:.\leds.c      ****  * CONFIDENTIAL AND PROPRIETARY INFORMATION
   8:.\leds.c      ****  * WHICH IS THE PROPERTY OF your company.
   9:.\leds.c      ****  *
  10:.\leds.c      ****  * ========================================
  11:.\leds.c      **** */
  12:.\leds.c      **** #include <project.h>
  13:.\leds.c      **** #include <leds.h>
  14:.\leds.c      **** 
  15:.\leds.c      **** uint8 i = 0;
  16:.\leds.c      **** 
  17:.\leds.c      **** void turnLedsOff()
  18:.\leds.c      **** {
  26              		.loc 1 18 0
  27              		.cfi_startproc
  28 0000 08B5     		push	{r3, lr}
  29              		.cfi_def_cfa_offset 8
  30              		.cfi_offset 3, -8
  31              		.cfi_offset 14, -4
  19:.\leds.c      ****     LED0_Write(1u);
  32              		.loc 1 19 0
  33 0002 0120     		mov	r0, #1
  34 0004 FFF7FEFF 		bl	LED0_Write
  35              	.LVL0:
  20:.\leds.c      ****     LED1_Write(1u);
  36              		.loc 1 20 0
  37 0008 0120     		mov	r0, #1
ARM GAS  C:\Users\MCisek\AppData\Local\Temp\ccZZamMD.s 			page 2


  38 000a FFF7FEFF 		bl	LED1_Write
  39              	.LVL1:
  21:.\leds.c      ****     LED2_Write(1u);
  40              		.loc 1 21 0
  41 000e 0120     		mov	r0, #1
  42 0010 FFF7FEFF 		bl	LED2_Write
  43              	.LVL2:
  22:.\leds.c      ****     LED3_Write(1u);
  44              		.loc 1 22 0
  45 0014 0120     		mov	r0, #1
  46 0016 FFF7FEFF 		bl	LED3_Write
  47              	.LVL3:
  23:.\leds.c      ****     LED4_Write(1u);
  48              		.loc 1 23 0
  49 001a 0120     		mov	r0, #1
  50 001c FFF7FEFF 		bl	LED4_Write
  51              	.LVL4:
  24:.\leds.c      ****     LED5_Write(1u);
  52              		.loc 1 24 0
  53 0020 0120     		mov	r0, #1
  54 0022 FFF7FEFF 		bl	LED5_Write
  55              	.LVL5:
  25:.\leds.c      ****     LED6_Write(1u);
  56              		.loc 1 25 0
  57 0026 0120     		mov	r0, #1
  58 0028 FFF7FEFF 		bl	LED6_Write
  59              	.LVL6:
  26:.\leds.c      ****     GPIO_1_Write(1u);
  60              		.loc 1 26 0
  61 002c 0120     		mov	r0, #1
  62 002e FFF7FEFF 		bl	GPIO_1_Write
  63              	.LVL7:
  27:.\leds.c      **** }
  64              		.loc 1 27 0
  65              		@ sp needed
  66 0032 08BD     		pop	{r3, pc}
  67              		.cfi_endproc
  68              	.LFE35:
  69              		.size	turnLedsOff, .-turnLedsOff
  70              		.section	.text.turnLedsOn,"ax",%progbits
  71              		.align	2
  72              		.global	turnLedsOn
  73              		.code	16
  74              		.thumb_func
  75              		.type	turnLedsOn, %function
  76              	turnLedsOn:
  77              	.LFB36:
  28:.\leds.c      **** 
  29:.\leds.c      **** void turnLedsOn()
  30:.\leds.c      **** {
  78              		.loc 1 30 0
  79              		.cfi_startproc
  80 0000 08B5     		push	{r3, lr}
  81              		.cfi_def_cfa_offset 8
  82              		.cfi_offset 3, -8
  83              		.cfi_offset 14, -4
  31:.\leds.c      ****     LED0_Write(0u);
ARM GAS  C:\Users\MCisek\AppData\Local\Temp\ccZZamMD.s 			page 3


  84              		.loc 1 31 0
  85 0002 0020     		mov	r0, #0
  86 0004 FFF7FEFF 		bl	LED0_Write
  87              	.LVL8:
  32:.\leds.c      ****     LED1_Write(0u);
  88              		.loc 1 32 0
  89 0008 0020     		mov	r0, #0
  90 000a FFF7FEFF 		bl	LED1_Write
  91              	.LVL9:
  33:.\leds.c      ****     LED2_Write(0u);
  92              		.loc 1 33 0
  93 000e 0020     		mov	r0, #0
  94 0010 FFF7FEFF 		bl	LED2_Write
  95              	.LVL10:
  34:.\leds.c      ****     LED3_Write(0u);
  96              		.loc 1 34 0
  97 0014 0020     		mov	r0, #0
  98 0016 FFF7FEFF 		bl	LED3_Write
  99              	.LVL11:
  35:.\leds.c      ****     LED4_Write(0u);
 100              		.loc 1 35 0
 101 001a 0020     		mov	r0, #0
 102 001c FFF7FEFF 		bl	LED4_Write
 103              	.LVL12:
  36:.\leds.c      ****     LED5_Write(0u);
 104              		.loc 1 36 0
 105 0020 0020     		mov	r0, #0
 106 0022 FFF7FEFF 		bl	LED5_Write
 107              	.LVL13:
  37:.\leds.c      ****     LED6_Write(0u);
 108              		.loc 1 37 0
 109 0026 0020     		mov	r0, #0
 110 0028 FFF7FEFF 		bl	LED6_Write
 111              	.LVL14:
  38:.\leds.c      ****     GPIO_1_Write(0u);
 112              		.loc 1 38 0
 113 002c 0020     		mov	r0, #0
 114 002e FFF7FEFF 		bl	GPIO_1_Write
 115              	.LVL15:
  39:.\leds.c      **** }
 116              		.loc 1 39 0
 117              		@ sp needed
 118 0032 08BD     		pop	{r3, pc}
 119              		.cfi_endproc
 120              	.LFE36:
 121              		.size	turnLedsOn, .-turnLedsOn
 122              		.section	.text.LedInterruptHandler,"ax",%progbits
 123              		.align	2
 124              		.global	LedInterruptHandler
 125              		.code	16
 126              		.thumb_func
 127              		.type	LedInterruptHandler, %function
 128              	LedInterruptHandler:
 129              	.LFB38:
  40:.\leds.c      **** 
  41:.\leds.c      **** void nightRider(uint8 i)
  42:.\leds.c      **** {
ARM GAS  C:\Users\MCisek\AppData\Local\Temp\ccZZamMD.s 			page 4


  43:.\leds.c      ****     turnLedsOff();
  44:.\leds.c      ****     switch(i){
  45:.\leds.c      ****         case 0: case 14:
  46:.\leds.c      ****             LED0_Write(0u);
  47:.\leds.c      ****             break;
  48:.\leds.c      ****         case 1: case 13:
  49:.\leds.c      ****             LED0_Write(0u);
  50:.\leds.c      ****             LED1_Write(0u);
  51:.\leds.c      ****             break;
  52:.\leds.c      ****         case 2: case 12:
  53:.\leds.c      ****             LED1_Write(0u);
  54:.\leds.c      ****             LED2_Write(0u);
  55:.\leds.c      ****             break;
  56:.\leds.c      ****         case 3: case 11:
  57:.\leds.c      ****             LED2_Write(0u);
  58:.\leds.c      ****             LED3_Write(0u);
  59:.\leds.c      ****             break;
  60:.\leds.c      ****         case 4: case 10:
  61:.\leds.c      ****             LED3_Write(0u);
  62:.\leds.c      ****             LED4_Write(0u);
  63:.\leds.c      ****             break;
  64:.\leds.c      ****         case 5: case 9:
  65:.\leds.c      ****             LED4_Write(0u);
  66:.\leds.c      ****             LED5_Write(0u);
  67:.\leds.c      ****             break;
  68:.\leds.c      ****         case 6: case 8:
  69:.\leds.c      ****             LED5_Write(0u);
  70:.\leds.c      ****             LED6_Write(0u);
  71:.\leds.c      ****             break;
  72:.\leds.c      ****         case 7:
  73:.\leds.c      ****             LED6_Write(0u);
  74:.\leds.c      ****             break;
  75:.\leds.c      ****         default:
  76:.\leds.c      ****             break;
  77:.\leds.c      ****     }
  78:.\leds.c      **** }
  79:.\leds.c      **** 
  80:.\leds.c      **** CY_ISR(LedInterruptHandler)
  81:.\leds.c      **** {
 130              		.loc 1 81 0
 131              		.cfi_startproc
 132 0000 08B5     		push	{r3, lr}
 133              		.cfi_def_cfa_offset 8
 134              		.cfi_offset 3, -8
 135              		.cfi_offset 14, -4
  82:.\leds.c      ****     //i++;
  83:.\leds.c      ****     //nightRider(i);
  84:.\leds.c      ****     //if(i==14)
  85:.\leds.c      ****     if(i==1)
 136              		.loc 1 85 0
 137 0002 0A4B     		ldr	r3, .L6
 138 0004 1B78     		ldrb	r3, [r3]
 139 0006 012B     		cmp	r3, #1
 140 0008 05D1     		bne	.L4
  86:.\leds.c      ****     {
  87:.\leds.c      ****         i=0;
 141              		.loc 1 87 0
ARM GAS  C:\Users\MCisek\AppData\Local\Temp\ccZZamMD.s 			page 5


 142 000a 0022     		mov	r2, #0
 143 000c 074B     		ldr	r3, .L6
 144 000e 1A70     		strb	r2, [r3]
  88:.\leds.c      ****         turnLedsOff();
 145              		.loc 1 88 0
 146 0010 FFF7FEFF 		bl	turnLedsOff
 147              	.LVL16:
 148 0014 01E0     		b	.L5
 149              	.L4:
  89:.\leds.c      ****     }
  90:.\leds.c      ****     else
  91:.\leds.c      ****     {
  92:.\leds.c      ****         turnLedsOn();
 150              		.loc 1 92 0
 151 0016 FFF7FEFF 		bl	turnLedsOn
 152              	.LVL17:
 153              	.L5:
  93:.\leds.c      ****     }
  94:.\leds.c      ****     i++;
 154              		.loc 1 94 0
 155 001a 044A     		ldr	r2, .L6
 156 001c 1378     		ldrb	r3, [r2]
 157 001e 0133     		add	r3, r3, #1
 158 0020 1370     		strb	r3, [r2]
  95:.\leds.c      ****     //led_isr_ClearPending();
  96:.\leds.c      ****     //Timer_I2C_SENSORS_ClearInterrupt(Timer_I2C_SENSORS_INTR_MASK_TC);
  97:.\leds.c      ****     Timer_led_isr_ClearInterrupt(Timer_led_isr_INTR_MASK_TC);
 159              		.loc 1 97 0
 160 0022 0120     		mov	r0, #1
 161 0024 FFF7FEFF 		bl	Timer_led_isr_ClearInterrupt
 162              	.LVL18:
  98:.\leds.c      **** }
 163              		.loc 1 98 0
 164              		@ sp needed
 165 0028 08BD     		pop	{r3, pc}
 166              	.L7:
 167 002a C046     		.align	2
 168              	.L6:
 169 002c 00000000 		.word	.LANCHOR0
 170              		.cfi_endproc
 171              	.LFE38:
 172              		.size	LedInterruptHandler, .-LedInterruptHandler
 173              		.section	.text.nightRider,"ax",%progbits
 174              		.align	2
 175              		.global	nightRider
 176              		.code	16
 177              		.thumb_func
 178              		.type	nightRider, %function
 179              	nightRider:
 180              	.LFB37:
  42:.\leds.c      ****     turnLedsOff();
 181              		.loc 1 42 0
 182              		.cfi_startproc
 183              	.LVL19:
 184 0000 10B5     		push	{r4, lr}
 185              		.cfi_def_cfa_offset 8
 186              		.cfi_offset 4, -8
ARM GAS  C:\Users\MCisek\AppData\Local\Temp\ccZZamMD.s 			page 6


 187              		.cfi_offset 14, -4
 188 0002 041C     		mov	r4, r0
  43:.\leds.c      ****     switch(i){
 189              		.loc 1 43 0
 190 0004 FFF7FEFF 		bl	turnLedsOff
 191              	.LVL20:
  44:.\leds.c      ****         case 0: case 14:
 192              		.loc 1 44 0
 193 0008 0E2C     		cmp	r4, #14
 194 000a 34D8     		bhi	.L8
 195 000c A400     		lsl	r4, r4, #2
 196 000e 1A4B     		ldr	r3, .L19
 197 0010 1B59     		ldr	r3, [r3, r4]
 198 0012 9F46     		mov	pc, r3
 199              		.section	.rodata
 200              		.align	2
 201              	.L11:
 202 0000 14000000 		.word	.L10
 203 0004 1C000000 		.word	.L12
 204 0008 2A000000 		.word	.L13
 205 000c 38000000 		.word	.L14
 206 0010 46000000 		.word	.L15
 207 0014 54000000 		.word	.L16
 208 0018 62000000 		.word	.L17
 209 001c 70000000 		.word	.L18
 210 0020 62000000 		.word	.L17
 211 0024 54000000 		.word	.L16
 212 0028 46000000 		.word	.L15
 213 002c 38000000 		.word	.L14
 214 0030 2A000000 		.word	.L13
 215 0034 1C000000 		.word	.L12
 216 0038 14000000 		.word	.L10
 217              		.section	.text.nightRider
 218              	.L10:
  46:.\leds.c      ****             break;
 219              		.loc 1 46 0
 220 0014 0020     		mov	r0, #0
 221 0016 FFF7FEFF 		bl	LED0_Write
 222              	.LVL21:
  47:.\leds.c      ****         case 1: case 13:
 223              		.loc 1 47 0
 224 001a 2CE0     		b	.L8
 225              	.L12:
  49:.\leds.c      ****             LED1_Write(0u);
 226              		.loc 1 49 0
 227 001c 0020     		mov	r0, #0
 228 001e FFF7FEFF 		bl	LED0_Write
 229              	.LVL22:
  50:.\leds.c      ****             break;
 230              		.loc 1 50 0
 231 0022 0020     		mov	r0, #0
 232 0024 FFF7FEFF 		bl	LED1_Write
 233              	.LVL23:
  51:.\leds.c      ****         case 2: case 12:
 234              		.loc 1 51 0
 235 0028 25E0     		b	.L8
 236              	.L13:
ARM GAS  C:\Users\MCisek\AppData\Local\Temp\ccZZamMD.s 			page 7


  53:.\leds.c      ****             LED2_Write(0u);
 237              		.loc 1 53 0
 238 002a 0020     		mov	r0, #0
 239 002c FFF7FEFF 		bl	LED1_Write
 240              	.LVL24:
  54:.\leds.c      ****             break;
 241              		.loc 1 54 0
 242 0030 0020     		mov	r0, #0
 243 0032 FFF7FEFF 		bl	LED2_Write
 244              	.LVL25:
  55:.\leds.c      ****         case 3: case 11:
 245              		.loc 1 55 0
 246 0036 1EE0     		b	.L8
 247              	.L14:
  57:.\leds.c      ****             LED3_Write(0u);
 248              		.loc 1 57 0
 249 0038 0020     		mov	r0, #0
 250 003a FFF7FEFF 		bl	LED2_Write
 251              	.LVL26:
  58:.\leds.c      ****             break;
 252              		.loc 1 58 0
 253 003e 0020     		mov	r0, #0
 254 0040 FFF7FEFF 		bl	LED3_Write
 255              	.LVL27:
  59:.\leds.c      ****         case 4: case 10:
 256              		.loc 1 59 0
 257 0044 17E0     		b	.L8
 258              	.L15:
  61:.\leds.c      ****             LED4_Write(0u);
 259              		.loc 1 61 0
 260 0046 0020     		mov	r0, #0
 261 0048 FFF7FEFF 		bl	LED3_Write
 262              	.LVL28:
  62:.\leds.c      ****             break;
 263              		.loc 1 62 0
 264 004c 0020     		mov	r0, #0
 265 004e FFF7FEFF 		bl	LED4_Write
 266              	.LVL29:
  63:.\leds.c      ****         case 5: case 9:
 267              		.loc 1 63 0
 268 0052 10E0     		b	.L8
 269              	.L16:
  65:.\leds.c      ****             LED5_Write(0u);
 270              		.loc 1 65 0
 271 0054 0020     		mov	r0, #0
 272 0056 FFF7FEFF 		bl	LED4_Write
 273              	.LVL30:
  66:.\leds.c      ****             break;
 274              		.loc 1 66 0
 275 005a 0020     		mov	r0, #0
 276 005c FFF7FEFF 		bl	LED5_Write
 277              	.LVL31:
  67:.\leds.c      ****         case 6: case 8:
 278              		.loc 1 67 0
 279 0060 09E0     		b	.L8
 280              	.L17:
  69:.\leds.c      ****             LED6_Write(0u);
ARM GAS  C:\Users\MCisek\AppData\Local\Temp\ccZZamMD.s 			page 8


 281              		.loc 1 69 0
 282 0062 0020     		mov	r0, #0
 283 0064 FFF7FEFF 		bl	LED5_Write
 284              	.LVL32:
  70:.\leds.c      ****             break;
 285              		.loc 1 70 0
 286 0068 0020     		mov	r0, #0
 287 006a FFF7FEFF 		bl	LED6_Write
 288              	.LVL33:
  71:.\leds.c      ****         case 7:
 289              		.loc 1 71 0
 290 006e 02E0     		b	.L8
 291              	.L18:
  73:.\leds.c      ****             break;
 292              		.loc 1 73 0
 293 0070 0020     		mov	r0, #0
 294 0072 FFF7FEFF 		bl	LED6_Write
 295              	.LVL34:
 296              	.L8:
  78:.\leds.c      **** 
 297              		.loc 1 78 0
 298              		@ sp needed
 299 0076 10BD     		pop	{r4, pc}
 300              	.L20:
 301              		.align	2
 302              	.L19:
 303 0078 00000000 		.word	.L11
 304              		.cfi_endproc
 305              	.LFE37:
 306              		.size	nightRider, .-nightRider
 307              		.section	.text.initLeds,"ax",%progbits
 308              		.align	2
 309              		.global	initLeds
 310              		.code	16
 311              		.thumb_func
 312              		.type	initLeds, %function
 313              	initLeds:
 314              	.LFB39:
  99:.\leds.c      **** 
 100:.\leds.c      **** void initLeds()
 101:.\leds.c      **** {
 315              		.loc 1 101 0
 316              		.cfi_startproc
 317 0000 08B5     		push	{r3, lr}
 318              		.cfi_def_cfa_offset 8
 319              		.cfi_offset 3, -8
 320              		.cfi_offset 14, -4
 102:.\leds.c      ****     led_isr_StartEx(LedInterruptHandler);
 321              		.loc 1 102 0
 322 0002 0348     		ldr	r0, .L22
 323 0004 FFF7FEFF 		bl	led_isr_StartEx
 324              	.LVL35:
 103:.\leds.c      ****     Timer_led_isr_Start();
 325              		.loc 1 103 0
 326 0008 FFF7FEFF 		bl	Timer_led_isr_Start
 327              	.LVL36:
 104:.\leds.c      **** }
ARM GAS  C:\Users\MCisek\AppData\Local\Temp\ccZZamMD.s 			page 9


 328              		.loc 1 104 0
 329              		@ sp needed
 330 000c 08BD     		pop	{r3, pc}
 331              	.L23:
 332 000e C046     		.align	2
 333              	.L22:
 334 0010 00000000 		.word	LedInterruptHandler
 335              		.cfi_endproc
 336              	.LFE39:
 337              		.size	initLeds, .-initLeds
 338              		.global	i
 339              		.bss
 340              		.set	.LANCHOR0,. + 0
 341              		.type	i, %object
 342              		.size	i, 1
 343              	i:
 344 0000 00       		.space	1
 345              		.text
 346              	.Letext0:
 347              		.file 2 "Generated_Source\\PSoC4/cytypes.h"
 348              		.file 3 "Generated_Source\\PSoC4/LED0.h"
 349              		.file 4 "Generated_Source\\PSoC4/LED1.h"
 350              		.file 5 "Generated_Source\\PSoC4/LED2.h"
 351              		.file 6 "Generated_Source\\PSoC4/LED3.h"
 352              		.file 7 "Generated_Source\\PSoC4/LED4.h"
 353              		.file 8 "Generated_Source\\PSoC4/LED5.h"
 354              		.file 9 "Generated_Source\\PSoC4/LED6.h"
 355              		.file 10 "Generated_Source\\PSoC4/GPIO_1.h"
 356              		.file 11 "Generated_Source\\PSoC4/Timer_led_isr.h"
 357              		.file 12 "Generated_Source\\PSoC4/led_isr.h"