ARM GAS  C:\Users\MCisek\AppData\Local\Temp\cc3AFWRX.s 			page 1


   1              		.cpu cortex-m0
   2              		.fpu softvfp
   3              		.eabi_attribute 20, 1
   4              		.eabi_attribute 21, 1
   5              		.eabi_attribute 23, 3
   6              		.eabi_attribute 24, 1
   7              		.eabi_attribute 25, 1
   8              		.eabi_attribute 26, 1
   9              		.eabi_attribute 30, 1
  10              		.eabi_attribute 34, 0
  11              		.eabi_attribute 18, 4
  12              		.code	16
  13              		.file	"main.c"
  14              		.text
  15              	.Ltext0:
  16              		.cfi_sections	.debug_frame
  17              		.section	.text.Initialize_System,"ax",%progbits
  18              		.align	2
  19              		.global	Initialize_System
  20              		.code	16
  21              		.thumb_func
  22              		.type	Initialize_System, %function
  23              	Initialize_System:
  24              	.LFB35:
  25              		.file 1 ".\\main.c"
   1:.\main.c      **** /* ========================================
   2:.\main.c      ****  *
   3:.\main.c      ****  * Copyright YOUR COMPANY, THE YEAR
   4:.\main.c      ****  * All Rights Reserved
   5:.\main.c      ****  * UNPUBLISHED, LICENSED SOFTWARE.
   6:.\main.c      ****  *
   7:.\main.c      ****  * CONFIDENTIAL AND PROPRIETARY INFORMATION
   8:.\main.c      ****  * WHICH IS THE PROPERTY OF your company.
   9:.\main.c      ****  *
  10:.\main.c      ****  * ========================================
  11:.\main.c      **** */
  12:.\main.c      **** #include <project.h>
  13:.\main.c      **** #include <motor_control.h>
  14:.\main.c      **** #include <mpu_i2c.h>
  15:.\main.c      **** #include <leds_disp.h>
  16:.\main.c      **** 
  17:.\main.c      **** void Initialize_System()
  18:.\main.c      **** {
  26              		.loc 1 18 0
  27              		.cfi_startproc
  28 0000 08B5     		push	{r3, lr}
  29              		.cfi_def_cfa_offset 8
  30              		.cfi_offset 3, -8
  31              		.cfi_offset 14, -4
  19:.\main.c      ****     GPIO_0_Write(1);
  32              		.loc 1 19 0
  33 0002 0120     		mov	r0, #1
  34 0004 FFF7FEFF 		bl	GPIO_0_Write
  35              	.LVL0:
  20:.\main.c      ****     CyDelay(1000u);
  36              		.loc 1 20 0
  37 0008 FA20     		mov	r0, #250
ARM GAS  C:\Users\MCisek\AppData\Local\Temp\cc3AFWRX.s 			page 2


  38 000a 8000     		lsl	r0, r0, #2
  39 000c FFF7FEFF 		bl	CyDelay
  40              	.LVL1:
  21:.\main.c      ****     CyGlobalIntEnable;      /* Enable global interrupts */
  41              		.loc 1 21 0
  42              	@ 21 ".\main.c" 1
  43 0010 62B6     		CPSIE   i
  44              	@ 0 "" 2
  22:.\main.c      ****     
  23:.\main.c      ****     #ifdef DEBUG
  24:.\main.c      ****         DEBUG_Start();
  45              		.loc 1 24 0
  46              		.code	16
  47 0012 FFF7FEFF 		bl	DEBUG_Start
  48              	.LVL2:
  25:.\main.c      **** 		DEBUG_UartInit();
  49              		.loc 1 25 0
  50 0016 FFF7FEFF 		bl	DEBUG_UartInit
  51              	.LVL3:
  26:.\main.c      ****     #endif
  27:.\main.c      **** 	
  28:.\main.c      ****     //initMotorContol();
  29:.\main.c      ****     //initLeds();
  30:.\main.c      **** 	Init_MPU();
  52              		.loc 1 30 0
  53 001a FFF7FEFF 		bl	Init_MPU
  54              	.LVL4:
  31:.\main.c      ****     
  32:.\main.c      **** 	//DEBUG_UartPutString("START");
  33:.\main.c      **** }
  55              		.loc 1 33 0
  56              		@ sp needed
  57 001e 08BD     		pop	{r3, pc}
  58              		.cfi_endproc
  59              	.LFE35:
  60              		.size	Initialize_System, .-Initialize_System
  61              		.section	.text.main,"ax",%progbits
  62              		.align	2
  63              		.global	main
  64              		.code	16
  65              		.thumb_func
  66              		.type	main, %function
  67              	main:
  68              	.LFB36:
  34:.\main.c      **** 
  35:.\main.c      **** int main()
  36:.\main.c      **** {    
  69              		.loc 1 36 0
  70              		.cfi_startproc
  71 0000 08B5     		push	{r3, lr}
  72              		.cfi_def_cfa_offset 8
  73              		.cfi_offset 3, -8
  74              		.cfi_offset 14, -4
  37:.\main.c      ****     Initialize_System();
  75              		.loc 1 37 0
  76 0002 FFF7FEFF 		bl	Initialize_System
  77              	.LVL5:
ARM GAS  C:\Users\MCisek\AppData\Local\Temp\cc3AFWRX.s 			page 3


  78              	.L3:
  38:.\main.c      ****     
  39:.\main.c      ****     for(;;)
  40:.\main.c      ****     {
  41:.\main.c      ****         if(get_i2c_flag() == 1)
  79              		.loc 1 41 0
  80 0006 FFF7FEFF 		bl	get_i2c_flag
  81              	.LVL6:
  82 000a 0128     		cmp	r0, #1
  83 000c FBD1     		bne	.L3
  42:.\main.c      ****         {
  43:.\main.c      ****             set_i2c_flag(0u);
  84              		.loc 1 43 0
  85 000e 0020     		mov	r0, #0
  86 0010 FFF7FEFF 		bl	set_i2c_flag
  87              	.LVL7:
  44:.\main.c      ****             Read_accelerometer_values();
  88              		.loc 1 44 0
  89 0014 FFF7FEFF 		bl	Read_accelerometer_values
  90              	.LVL8:
  91 0018 F5E7     		b	.L3
  92              		.cfi_endproc
  93              	.LFE36:
  94              		.size	main, .-main
  95 001a C046     		.text
  96              	.Letext0:
  97              		.file 2 "Generated_Source\\PSoC4/cytypes.h"
  98              		.file 3 "Generated_Source\\PSoC4/GPIO_0.h"
  99              		.file 4 "Generated_Source\\PSoC4/CyLib.h"
 100              		.file 5 "Generated_Source\\PSoC4/DEBUG.h"
 101              		.file 6 "Generated_Source\\PSoC4/DEBUG_SPI_UART_PVT.h"
 102              		.file 7 "./mpu_i2c.h"