ARM GAS  C:\Users\MCisek\AppData\Local\Temp\ccpo7JeI.s 			page 1


   1              		.cpu cortex-m0
   2              		.fpu softvfp
   3              		.eabi_attribute 20, 1
   4              		.eabi_attribute 21, 1
   5              		.eabi_attribute 23, 3
   6              		.eabi_attribute 24, 1
   7              		.eabi_attribute 25, 1
   8              		.eabi_attribute 26, 1
   9              		.eabi_attribute 30, 1
  10              		.eabi_attribute 34, 0
  11              		.eabi_attribute 18, 4
  12              		.code	16
  13              		.file	"motor_control.c"
  14              		.text
  15              	.Ltext0:
  16              		.cfi_sections	.debug_frame
  17              		.section	.text.initMotorContol,"ax",%progbits
  18              		.align	2
  19              		.global	initMotorContol
  20              		.code	16
  21              		.thumb_func
  22              		.type	initMotorContol, %function
  23              	initMotorContol:
  24              	.LFB35:
  25              		.file 1 ".\\motor_control.c"
   1:.\motor_control.c **** /* ========================================
   2:.\motor_control.c ****  *
   3:.\motor_control.c ****  * Copyright YOUR COMPANY, THE YEAR
   4:.\motor_control.c ****  * All Rights Reserved
   5:.\motor_control.c ****  * UNPUBLISHED, LICENSED SOFTWARE.
   6:.\motor_control.c ****  *
   7:.\motor_control.c ****  * CONFIDENTIAL AND PROPRIETARY INFORMATION
   8:.\motor_control.c ****  * WHICH IS THE PROPERTY OF your company.
   9:.\motor_control.c ****  *
  10:.\motor_control.c ****  * ========================================
  11:.\motor_control.c **** */
  12:.\motor_control.c **** 
  13:.\motor_control.c **** #include <project.h>
  14:.\motor_control.c **** #include <motor_control.h>
  15:.\motor_control.c **** 
  16:.\motor_control.c **** void initMotorContol()
  17:.\motor_control.c **** {
  26              		.loc 1 17 0
  27              		.cfi_startproc
  28 0000 08B5     		push	{r3, lr}
  29              		.cfi_def_cfa_offset 8
  30              		.cfi_offset 3, -8
  31              		.cfi_offset 14, -4
  18:.\motor_control.c ****     PWM_MOTOR_Start();
  32              		.loc 1 18 0
  33 0002 FFF7FEFF 		bl	PWM_MOTOR_Start
  34              	.LVL0:
  19:.\motor_control.c ****     PWM_MOTOR_WritePeriod(255);
  35              		.loc 1 19 0
  36 0006 FF20     		mov	r0, #255
  37 0008 FFF7FEFF 		bl	PWM_MOTOR_WritePeriod
  38              	.LVL1:
ARM GAS  C:\Users\MCisek\AppData\Local\Temp\ccpo7JeI.s 			page 2


  20:.\motor_control.c **** }
  39              		.loc 1 20 0
  40              		@ sp needed
  41 000c 08BD     		pop	{r3, pc}
  42              		.cfi_endproc
  43              	.LFE35:
  44              		.size	initMotorContol, .-initMotorContol
  45 000e C046     		.section	.text.setMotor1,"ax",%progbits
  46              		.align	2
  47              		.global	setMotor1
  48              		.code	16
  49              		.thumb_func
  50              		.type	setMotor1, %function
  51              	setMotor1:
  52              	.LFB36:
  21:.\motor_control.c **** 
  22:.\motor_control.c **** void setMotor1(int direction, uint8 pwm)
  23:.\motor_control.c **** {
  53              		.loc 1 23 0
  54              		.cfi_startproc
  55              	.LVL2:
  56 0000 10B5     		push	{r4, lr}
  57              		.cfi_def_cfa_offset 8
  58              		.cfi_offset 4, -8
  59              		.cfi_offset 14, -4
  60 0002 0C1C     		mov	r4, r1
  24:.\motor_control.c ****     if(direction == -1)
  61              		.loc 1 24 0
  62 0004 431C     		add	r3, r0, #1
  63 0006 09D1     		bne	.L3
  25:.\motor_control.c ****     {
  26:.\motor_control.c ****         MOTOR1_1_Write(1u);
  64              		.loc 1 26 0
  65 0008 0230     		add	r0, r0, #2
  66              	.LVL3:
  67 000a FFF7FEFF 		bl	MOTOR1_1_Write
  68              	.LVL4:
  27:.\motor_control.c ****         MOTOR1_2_Write(0u);
  69              		.loc 1 27 0
  70 000e 0020     		mov	r0, #0
  71 0010 FFF7FEFF 		bl	MOTOR1_2_Write
  72              	.LVL5:
  28:.\motor_control.c ****         PWM_MOTOR_WriteCompare1(pwm);
  73              		.loc 1 28 0
  74 0014 201C     		mov	r0, r4
  75 0016 FFF7FEFF 		bl	PWM_MOTOR_WriteCompare1
  76              	.LVL6:
  77 001a 12E0     		b	.L2
  78              	.LVL7:
  79              	.L3:
  29:.\motor_control.c ****     }
  30:.\motor_control.c ****     else if(direction == 1)
  80              		.loc 1 30 0
  81 001c 0128     		cmp	r0, #1
  82 001e 09D1     		bne	.L5
  31:.\motor_control.c ****     {
  32:.\motor_control.c ****         MOTOR1_1_Write(0u);
ARM GAS  C:\Users\MCisek\AppData\Local\Temp\ccpo7JeI.s 			page 3


  83              		.loc 1 32 0
  84 0020 0020     		mov	r0, #0
  85              	.LVL8:
  86 0022 FFF7FEFF 		bl	MOTOR1_1_Write
  87              	.LVL9:
  33:.\motor_control.c ****         MOTOR1_2_Write(1u);
  88              		.loc 1 33 0
  89 0026 0120     		mov	r0, #1
  90 0028 FFF7FEFF 		bl	MOTOR1_2_Write
  91              	.LVL10:
  34:.\motor_control.c ****         PWM_MOTOR_WriteCompare1(pwm);
  92              		.loc 1 34 0
  93 002c 201C     		mov	r0, r4
  94 002e FFF7FEFF 		bl	PWM_MOTOR_WriteCompare1
  95              	.LVL11:
  96 0032 06E0     		b	.L2
  97              	.LVL12:
  98              	.L5:
  35:.\motor_control.c ****     }
  36:.\motor_control.c ****     else if(direction == 0)
  99              		.loc 1 36 0
 100 0034 0028     		cmp	r0, #0
 101 0036 04D1     		bne	.L2
  37:.\motor_control.c ****     {
  38:.\motor_control.c ****         MOTOR1_1_Write(0u);
 102              		.loc 1 38 0
 103 0038 FFF7FEFF 		bl	MOTOR1_1_Write
 104              	.LVL13:
  39:.\motor_control.c ****         MOTOR1_2_Write(0u);
 105              		.loc 1 39 0
 106 003c 0020     		mov	r0, #0
 107 003e FFF7FEFF 		bl	MOTOR1_2_Write
 108              	.LVL14:
 109              	.L2:
  40:.\motor_control.c ****     } 
  41:.\motor_control.c **** }
 110              		.loc 1 41 0
 111              		@ sp needed
 112 0042 10BD     		pop	{r4, pc}
 113              		.cfi_endproc
 114              	.LFE36:
 115              		.size	setMotor1, .-setMotor1
 116              		.section	.text.setMotor2,"ax",%progbits
 117              		.align	2
 118              		.global	setMotor2
 119              		.code	16
 120              		.thumb_func
 121              		.type	setMotor2, %function
 122              	setMotor2:
 123              	.LFB37:
  42:.\motor_control.c **** 
  43:.\motor_control.c **** void setMotor2(int direction, uint8 pwm)
  44:.\motor_control.c **** {
 124              		.loc 1 44 0
 125              		.cfi_startproc
 126              	.LVL15:
 127 0000 10B5     		push	{r4, lr}
ARM GAS  C:\Users\MCisek\AppData\Local\Temp\ccpo7JeI.s 			page 4


 128              		.cfi_def_cfa_offset 8
 129              		.cfi_offset 4, -8
 130              		.cfi_offset 14, -4
 131 0002 0C1C     		mov	r4, r1
  45:.\motor_control.c ****     if(direction == -1)
 132              		.loc 1 45 0
 133 0004 431C     		add	r3, r0, #1
 134 0006 09D1     		bne	.L7
  46:.\motor_control.c ****     {
  47:.\motor_control.c ****         MOTOR2_1_Write(1u);
 135              		.loc 1 47 0
 136 0008 0230     		add	r0, r0, #2
 137              	.LVL16:
 138 000a FFF7FEFF 		bl	MOTOR2_1_Write
 139              	.LVL17:
  48:.\motor_control.c ****         MOTOR2_2_Write(0u);
 140              		.loc 1 48 0
 141 000e 0020     		mov	r0, #0
 142 0010 FFF7FEFF 		bl	MOTOR2_2_Write
 143              	.LVL18:
  49:.\motor_control.c ****         PWM_MOTOR_WriteCompare2(pwm);
 144              		.loc 1 49 0
 145 0014 201C     		mov	r0, r4
 146 0016 FFF7FEFF 		bl	PWM_MOTOR_WriteCompare2
 147              	.LVL19:
 148 001a 12E0     		b	.L6
 149              	.LVL20:
 150              	.L7:
  50:.\motor_control.c ****     }
  51:.\motor_control.c ****     else if(direction == 1)
 151              		.loc 1 51 0
 152 001c 0128     		cmp	r0, #1
 153 001e 09D1     		bne	.L9
  52:.\motor_control.c ****     {
  53:.\motor_control.c ****         MOTOR2_1_Write(0u);
 154              		.loc 1 53 0
 155 0020 0020     		mov	r0, #0
 156              	.LVL21:
 157 0022 FFF7FEFF 		bl	MOTOR2_1_Write
 158              	.LVL22:
  54:.\motor_control.c ****         MOTOR2_2_Write(1u);
 159              		.loc 1 54 0
 160 0026 0120     		mov	r0, #1
 161 0028 FFF7FEFF 		bl	MOTOR2_2_Write
 162              	.LVL23:
  55:.\motor_control.c ****         PWM_MOTOR_WriteCompare2(pwm);
 163              		.loc 1 55 0
 164 002c 201C     		mov	r0, r4
 165 002e FFF7FEFF 		bl	PWM_MOTOR_WriteCompare2
 166              	.LVL24:
 167 0032 06E0     		b	.L6
 168              	.LVL25:
 169              	.L9:
  56:.\motor_control.c ****     }
  57:.\motor_control.c ****     else if(direction == 0)
 170              		.loc 1 57 0
 171 0034 0028     		cmp	r0, #0
ARM GAS  C:\Users\MCisek\AppData\Local\Temp\ccpo7JeI.s 			page 5


 172 0036 04D1     		bne	.L6
  58:.\motor_control.c ****     {
  59:.\motor_control.c ****         MOTOR2_1_Write(0u);
 173              		.loc 1 59 0
 174 0038 FFF7FEFF 		bl	MOTOR2_1_Write
 175              	.LVL26:
  60:.\motor_control.c ****         MOTOR2_2_Write(0u);
 176              		.loc 1 60 0
 177 003c 0020     		mov	r0, #0
 178 003e FFF7FEFF 		bl	MOTOR2_2_Write
 179              	.LVL27:
 180              	.L6:
  61:.\motor_control.c ****     } 
  62:.\motor_control.c **** }
 181              		.loc 1 62 0
 182              		@ sp needed
 183 0042 10BD     		pop	{r4, pc}
 184              		.cfi_endproc
 185              	.LFE37:
 186              		.size	setMotor2, .-setMotor2
 187              		.text
 188              	.Letext0:
 189              		.file 2 "Generated_Source\\PSoC4/PWM_MOTOR.h"
 190              		.file 3 "Generated_Source\\PSoC4/MOTOR1_1.h"
 191              		.file 4 "Generated_Source\\PSoC4/MOTOR1_2.h"
 192              		.file 5 "Generated_Source\\PSoC4/MOTOR2_1.h"
 193              		.file 6 "Generated_Source\\PSoC4/MOTOR2_2.h"
 194              		.file 7 "Generated_Source\\PSoC4/cytypes.h"