ARM GAS  C:\Users\MCisek\AppData\Local\Temp\cckWkEJe.s 			page 1


   1              		.cpu cortex-m0
   2              		.fpu softvfp
   3              		.eabi_attribute 20, 1
   4              		.eabi_attribute 21, 1
   5              		.eabi_attribute 23, 3
   6              		.eabi_attribute 24, 1
   7              		.eabi_attribute 25, 1
   8              		.eabi_attribute 26, 1
   9              		.eabi_attribute 30, 1
  10              		.eabi_attribute 34, 0
  11              		.eabi_attribute 18, 4
  12              		.code	16
  13              		.file	"mpu_i2c.c"
  14              		.text
  15              	.Ltext0:
  16              		.cfi_sections	.debug_frame
  17              		.section	.text.I2cInterruptHandler,"ax",%progbits
  18              		.align	2
  19              		.global	I2cInterruptHandler
  20              		.code	16
  21              		.thumb_func
  22              		.type	I2cInterruptHandler, %function
  23              	I2cInterruptHandler:
  24              	.LFB37:
  25              		.file 1 ".\\mpu_i2c.c"
   1:.\mpu_i2c.c   **** /* ========================================
   2:.\mpu_i2c.c   ****  *
   3:.\mpu_i2c.c   ****  * Copyright YOUR COMPANY, THE YEAR
   4:.\mpu_i2c.c   ****  * All Rights Reserved
   5:.\mpu_i2c.c   ****  * UNPUBLISHED, LICENSED SOFTWARE.
   6:.\mpu_i2c.c   ****  *
   7:.\mpu_i2c.c   ****  * CONFIDENTIAL AND PROPRIETARY INFORMATION
   8:.\mpu_i2c.c   ****  * WHICH IS THE PROPERTY OF your company.
   9:.\mpu_i2c.c   ****  *
  10:.\mpu_i2c.c   ****  * ========================================
  11:.\mpu_i2c.c   **** */
  12:.\mpu_i2c.c   **** #include <project.h>
  13:.\mpu_i2c.c   **** #include <mpu_i2c.h>
  14:.\mpu_i2c.c   **** 
  15:.\mpu_i2c.c   **** const uint8 acc_adr = 0x68;
  16:.\mpu_i2c.c   **** 
  17:.\mpu_i2c.c   **** volatile uint16 acX = 0;
  18:.\mpu_i2c.c   **** volatile uint16 acY = 0;
  19:.\mpu_i2c.c   **** volatile uint16 acZ = 0;
  20:.\mpu_i2c.c   **** 
  21:.\mpu_i2c.c   **** volatile uint8 gyX [2];
  22:.\mpu_i2c.c   **** volatile uint8 gyY [2];
  23:.\mpu_i2c.c   **** volatile uint8 gyZ [2];
  24:.\mpu_i2c.c   **** 
  25:.\mpu_i2c.c   **** volatile uint8 i2c_flag = 0; 
  26:.\mpu_i2c.c   **** 
  27:.\mpu_i2c.c   **** void Read_accelerometer_values()
  28:.\mpu_i2c.c   **** {
  29:.\mpu_i2c.c   **** 	I2C_I2CMasterSendStart(acc_adr, I2C_I2C_WRITE_XFER_MODE);
  30:.\mpu_i2c.c   **** 	I2C_I2CMasterWriteByte(0x3B);
  31:.\mpu_i2c.c   **** 	I2C_I2CMasterSendStop();
  32:.\mpu_i2c.c   **** 	
ARM GAS  C:\Users\MCisek\AppData\Local\Temp\cckWkEJe.s 			page 2


  33:.\mpu_i2c.c   **** 	//I2C_I2CMasterSendStart(acc_adr, I2C_I2C_MODE_NO_STOP);
  34:.\mpu_i2c.c   **** 	uint8 buf[6];
  35:.\mpu_i2c.c   **** 	I2C_I2CMasterReadBuf(acc_adr, buf, 6, I2C_I2C_WRITE_XFER_MODE);
  36:.\mpu_i2c.c   **** 	I2C_I2CMasterSendStop();
  37:.\mpu_i2c.c   **** 	
  38:.\mpu_i2c.c   **** 	acX = buf[0]<<8 | buf[1];
  39:.\mpu_i2c.c   **** 	acY = buf[2]<<8 | buf[3];
  40:.\mpu_i2c.c   **** 	acZ = buf[4]<<8 | buf[5];
  41:.\mpu_i2c.c   **** }
  42:.\mpu_i2c.c   **** 
  43:.\mpu_i2c.c   **** void Read_gyroscope_values()
  44:.\mpu_i2c.c   **** {
  45:.\mpu_i2c.c   **** 	I2C_I2CMasterSendStart(acc_adr, I2C_I2C_WRITE_XFER_MODE);
  46:.\mpu_i2c.c   **** 	I2C_I2CMasterWriteByte(0x43);
  47:.\mpu_i2c.c   **** 	I2C_I2CMasterSendStop();
  48:.\mpu_i2c.c   **** 	
  49:.\mpu_i2c.c   **** 	//I2C_I2CMasterSendStart(acc_adr, I2C_I2C_MODE_NO_STOP);
  50:.\mpu_i2c.c   **** 	uint8 buf[6];
  51:.\mpu_i2c.c   **** 	I2C_I2CMasterReadBuf(acc_adr, buf, 6, I2C_I2C_WRITE_XFER_MODE);
  52:.\mpu_i2c.c   **** 	I2C_I2CMasterSendStop();
  53:.\mpu_i2c.c   **** 	
  54:.\mpu_i2c.c   **** 	gyX[0] = buf[0]; gyX[1] = buf[1];
  55:.\mpu_i2c.c   **** 	gyY[0] = buf[2]; gyY[1] = buf[3];
  56:.\mpu_i2c.c   **** 	gyZ[0] = buf[4]; gyZ[1] = buf[5];
  57:.\mpu_i2c.c   **** }
  58:.\mpu_i2c.c   **** 
  59:.\mpu_i2c.c   **** CY_ISR(I2cInterruptHandler)
  60:.\mpu_i2c.c   **** {
  26              		.loc 1 60 0
  27              		.cfi_startproc
  28 0000 08B5     		push	{r3, lr}
  29              		.cfi_def_cfa_offset 8
  30              		.cfi_offset 3, -8
  31              		.cfi_offset 14, -4
  61:.\mpu_i2c.c   ****     //i2c_isr_ClearPending();
  62:.\mpu_i2c.c   ****     //Read_accelerometer_values();
  63:.\mpu_i2c.c   ****     //Read_gyroscope_values();
  64:.\mpu_i2c.c   ****     i2c_flag = 1;
  32              		.loc 1 64 0
  33 0002 0122     		mov	r2, #1
  34 0004 064B     		ldr	r3, .L2
  35 0006 1A70     		strb	r2, [r3]
  65:.\mpu_i2c.c   ****     
  66:.\mpu_i2c.c   ****     GPIO_0_Write(~GPIO_0_Read());
  36              		.loc 1 66 0
  37 0008 FFF7FEFF 		bl	GPIO_0_Read
  38              	.LVL0:
  39 000c C043     		mvn	r0, r0
  40 000e C0B2     		uxtb	r0, r0
  41 0010 FFF7FEFF 		bl	GPIO_0_Write
  42              	.LVL1:
  67:.\mpu_i2c.c   ****     
  68:.\mpu_i2c.c   ****     i2c_isr_ClearPending();
  43              		.loc 1 68 0
  44 0014 FFF7FEFF 		bl	i2c_isr_ClearPending
  45              	.LVL2:
  69:.\mpu_i2c.c   ****     Timer_i2c_isr_ClearInterrupt(Timer_i2c_isr_INTR_MASK_TC);
ARM GAS  C:\Users\MCisek\AppData\Local\Temp\cckWkEJe.s 			page 3


  46              		.loc 1 69 0
  47 0018 0120     		mov	r0, #1
  48 001a FFF7FEFF 		bl	Timer_i2c_isr_ClearInterrupt
  49              	.LVL3:
  70:.\mpu_i2c.c   **** }
  50              		.loc 1 70 0
  51              		@ sp needed
  52 001e 08BD     		pop	{r3, pc}
  53              	.L3:
  54              		.align	2
  55              	.L2:
  56 0020 00000000 		.word	.LANCHOR0
  57              		.cfi_endproc
  58              	.LFE37:
  59              		.size	I2cInterruptHandler, .-I2cInterruptHandler
  60              		.section	.text.Read_accelerometer_values,"ax",%progbits
  61              		.align	2
  62              		.global	Read_accelerometer_values
  63              		.code	16
  64              		.thumb_func
  65              		.type	Read_accelerometer_values, %function
  66              	Read_accelerometer_values:
  67              	.LFB35:
  28:.\mpu_i2c.c   **** 	I2C_I2CMasterSendStart(acc_adr, I2C_I2C_WRITE_XFER_MODE);
  68              		.loc 1 28 0
  69              		.cfi_startproc
  70 0000 00B5     		push	{lr}
  71              		.cfi_def_cfa_offset 4
  72              		.cfi_offset 14, -4
  73 0002 83B0     		sub	sp, sp, #12
  74              		.cfi_def_cfa_offset 16
  29:.\mpu_i2c.c   **** 	I2C_I2CMasterWriteByte(0x3B);
  75              		.loc 1 29 0
  76 0004 6820     		mov	r0, #104
  77 0006 0021     		mov	r1, #0
  78 0008 FFF7FEFF 		bl	I2C_I2CMasterSendStart
  79              	.LVL4:
  30:.\mpu_i2c.c   **** 	I2C_I2CMasterSendStop();
  80              		.loc 1 30 0
  81 000c 3B20     		mov	r0, #59
  82 000e FFF7FEFF 		bl	I2C_I2CMasterWriteByte
  83              	.LVL5:
  31:.\mpu_i2c.c   **** 	
  84              		.loc 1 31 0
  85 0012 FFF7FEFF 		bl	I2C_I2CMasterSendStop
  86              	.LVL6:
  35:.\mpu_i2c.c   **** 	I2C_I2CMasterSendStop();
  87              		.loc 1 35 0
  88 0016 6820     		mov	r0, #104
  89 0018 6946     		mov	r1, sp
  90 001a 0622     		mov	r2, #6
  91 001c 0023     		mov	r3, #0
  92 001e FFF7FEFF 		bl	I2C_I2CMasterReadBuf
  93              	.LVL7:
  36:.\mpu_i2c.c   **** 	
  94              		.loc 1 36 0
  95 0022 FFF7FEFF 		bl	I2C_I2CMasterSendStop
ARM GAS  C:\Users\MCisek\AppData\Local\Temp\cckWkEJe.s 			page 4


  96              	.LVL8:
  38:.\mpu_i2c.c   **** 	acY = buf[2]<<8 | buf[3];
  97              		.loc 1 38 0
  98 0026 6B46     		mov	r3, sp
  99 0028 1A78     		ldrb	r2, [r3]
 100 002a 1202     		lsl	r2, r2, #8
 101 002c 5B78     		ldrb	r3, [r3, #1]
 102 002e 1A43     		orr	r2, r3
 103 0030 084B     		ldr	r3, .L5
 104 0032 5A80     		strh	r2, [r3, #2]
  39:.\mpu_i2c.c   **** 	acZ = buf[4]<<8 | buf[5];
 105              		.loc 1 39 0
 106 0034 6A46     		mov	r2, sp
 107 0036 9278     		ldrb	r2, [r2, #2]
 108 0038 1202     		lsl	r2, r2, #8
 109 003a 6946     		mov	r1, sp
 110 003c C978     		ldrb	r1, [r1, #3]
 111 003e 0A43     		orr	r2, r1
 112 0040 9A80     		strh	r2, [r3, #4]
  40:.\mpu_i2c.c   **** }
 113              		.loc 1 40 0
 114 0042 6A46     		mov	r2, sp
 115 0044 1279     		ldrb	r2, [r2, #4]
 116 0046 1202     		lsl	r2, r2, #8
 117 0048 6946     		mov	r1, sp
 118 004a 4979     		ldrb	r1, [r1, #5]
 119 004c 0A43     		orr	r2, r1
 120 004e DA80     		strh	r2, [r3, #6]
  41:.\mpu_i2c.c   **** 
 121              		.loc 1 41 0
 122 0050 03B0     		add	sp, sp, #12
 123              		@ sp needed
 124 0052 00BD     		pop	{pc}
 125              	.L6:
 126              		.align	2
 127              	.L5:
 128 0054 00000000 		.word	.LANCHOR0
 129              		.cfi_endproc
 130              	.LFE35:
 131              		.size	Read_accelerometer_values, .-Read_accelerometer_values
 132              		.section	.text.Read_gyroscope_values,"ax",%progbits
 133              		.align	2
 134              		.global	Read_gyroscope_values
 135              		.code	16
 136              		.thumb_func
 137              		.type	Read_gyroscope_values, %function
 138              	Read_gyroscope_values:
 139              	.LFB36:
  44:.\mpu_i2c.c   **** 	I2C_I2CMasterSendStart(acc_adr, I2C_I2C_WRITE_XFER_MODE);
 140              		.loc 1 44 0
 141              		.cfi_startproc
 142 0000 00B5     		push	{lr}
 143              		.cfi_def_cfa_offset 4
 144              		.cfi_offset 14, -4
 145 0002 83B0     		sub	sp, sp, #12
 146              		.cfi_def_cfa_offset 16
  45:.\mpu_i2c.c   **** 	I2C_I2CMasterWriteByte(0x43);
ARM GAS  C:\Users\MCisek\AppData\Local\Temp\cckWkEJe.s 			page 5


 147              		.loc 1 45 0
 148 0004 6820     		mov	r0, #104
 149 0006 0021     		mov	r1, #0
 150 0008 FFF7FEFF 		bl	I2C_I2CMasterSendStart
 151              	.LVL9:
  46:.\mpu_i2c.c   **** 	I2C_I2CMasterSendStop();
 152              		.loc 1 46 0
 153 000c 4320     		mov	r0, #67
 154 000e FFF7FEFF 		bl	I2C_I2CMasterWriteByte
 155              	.LVL10:
  47:.\mpu_i2c.c   **** 	
 156              		.loc 1 47 0
 157 0012 FFF7FEFF 		bl	I2C_I2CMasterSendStop
 158              	.LVL11:
  51:.\mpu_i2c.c   **** 	I2C_I2CMasterSendStop();
 159              		.loc 1 51 0
 160 0016 6820     		mov	r0, #104
 161 0018 6946     		mov	r1, sp
 162 001a 0622     		mov	r2, #6
 163 001c 0023     		mov	r3, #0
 164 001e FFF7FEFF 		bl	I2C_I2CMasterReadBuf
 165              	.LVL12:
  52:.\mpu_i2c.c   **** 	
 166              		.loc 1 52 0
 167 0022 FFF7FEFF 		bl	I2C_I2CMasterSendStop
 168              	.LVL13:
  54:.\mpu_i2c.c   **** 	gyY[0] = buf[2]; gyY[1] = buf[3];
 169              		.loc 1 54 0
 170 0026 6B46     		mov	r3, sp
 171 0028 1A78     		ldrb	r2, [r3]
 172 002a 0A4B     		ldr	r3, .L8
 173 002c 1A70     		strb	r2, [r3]
 174 002e 6A46     		mov	r2, sp
 175 0030 5278     		ldrb	r2, [r2, #1]
 176 0032 5A70     		strb	r2, [r3, #1]
  55:.\mpu_i2c.c   **** 	gyZ[0] = buf[4]; gyZ[1] = buf[5];
 177              		.loc 1 55 0
 178 0034 6B46     		mov	r3, sp
 179 0036 9A78     		ldrb	r2, [r3, #2]
 180 0038 074B     		ldr	r3, .L8+4
 181 003a 1A70     		strb	r2, [r3]
 182 003c 6A46     		mov	r2, sp
 183 003e D278     		ldrb	r2, [r2, #3]
 184 0040 5A70     		strb	r2, [r3, #1]
  56:.\mpu_i2c.c   **** }
 185              		.loc 1 56 0
 186 0042 6B46     		mov	r3, sp
 187 0044 1A79     		ldrb	r2, [r3, #4]
 188 0046 054B     		ldr	r3, .L8+8
 189 0048 1A70     		strb	r2, [r3]
 190 004a 6A46     		mov	r2, sp
 191 004c 5279     		ldrb	r2, [r2, #5]
 192 004e 5A70     		strb	r2, [r3, #1]
  57:.\mpu_i2c.c   **** 
 193              		.loc 1 57 0
 194 0050 03B0     		add	sp, sp, #12
 195              		@ sp needed
ARM GAS  C:\Users\MCisek\AppData\Local\Temp\cckWkEJe.s 			page 6


 196 0052 00BD     		pop	{pc}
 197              	.L9:
 198              		.align	2
 199              	.L8:
 200 0054 00000000 		.word	gyX
 201 0058 00000000 		.word	gyY
 202 005c 00000000 		.word	gyZ
 203              		.cfi_endproc
 204              	.LFE36:
 205              		.size	Read_gyroscope_values, .-Read_gyroscope_values
 206              		.section	.text.get_i2c_flag,"ax",%progbits
 207              		.align	2
 208              		.global	get_i2c_flag
 209              		.code	16
 210              		.thumb_func
 211              		.type	get_i2c_flag, %function
 212              	get_i2c_flag:
 213              	.LFB38:
  71:.\mpu_i2c.c   **** 
  72:.\mpu_i2c.c   **** uint8 get_i2c_flag()
  73:.\mpu_i2c.c   **** {
 214              		.loc 1 73 0
 215              		.cfi_startproc
  74:.\mpu_i2c.c   ****     return i2c_flag;
 216              		.loc 1 74 0
 217 0000 014B     		ldr	r3, .L11
 218 0002 1878     		ldrb	r0, [r3]
 219 0004 C0B2     		uxtb	r0, r0
  75:.\mpu_i2c.c   **** }
 220              		.loc 1 75 0
 221              		@ sp needed
 222 0006 7047     		bx	lr
 223              	.L12:
 224              		.align	2
 225              	.L11:
 226 0008 00000000 		.word	.LANCHOR0
 227              		.cfi_endproc
 228              	.LFE38:
 229              		.size	get_i2c_flag, .-get_i2c_flag
 230              		.section	.text.set_i2c_flag,"ax",%progbits
 231              		.align	2
 232              		.global	set_i2c_flag
 233              		.code	16
 234              		.thumb_func
 235              		.type	set_i2c_flag, %function
 236              	set_i2c_flag:
 237              	.LFB39:
  76:.\mpu_i2c.c   **** 
  77:.\mpu_i2c.c   **** void set_i2c_flag(uint8 flag)
  78:.\mpu_i2c.c   **** {
 238              		.loc 1 78 0
 239              		.cfi_startproc
 240              	.LVL14:
  79:.\mpu_i2c.c   ****     i2c_flag = flag;
 241              		.loc 1 79 0
 242 0000 014B     		ldr	r3, .L14
 243 0002 1870     		strb	r0, [r3]
ARM GAS  C:\Users\MCisek\AppData\Local\Temp\cckWkEJe.s 			page 7


  80:.\mpu_i2c.c   **** }
 244              		.loc 1 80 0
 245              		@ sp needed
 246 0004 7047     		bx	lr
 247              	.L15:
 248 0006 C046     		.align	2
 249              	.L14:
 250 0008 00000000 		.word	.LANCHOR0
 251              		.cfi_endproc
 252              	.LFE39:
 253              		.size	set_i2c_flag, .-set_i2c_flag
 254              		.section	.text.Init_MPU,"ax",%progbits
 255              		.align	2
 256              		.global	Init_MPU
 257              		.code	16
 258              		.thumb_func
 259              		.type	Init_MPU, %function
 260              	Init_MPU:
 261              	.LFB40:
  81:.\mpu_i2c.c   **** 
  82:.\mpu_i2c.c   **** void Init_MPU()
  83:.\mpu_i2c.c   **** {   
 262              		.loc 1 83 0
 263              		.cfi_startproc
 264 0000 08B5     		push	{r3, lr}
 265              		.cfi_def_cfa_offset 8
 266              		.cfi_offset 3, -8
 267              		.cfi_offset 14, -4
  84:.\mpu_i2c.c   ****     I2C_Start();
 268              		.loc 1 84 0
 269 0002 FFF7FEFF 		bl	I2C_Start
 270              	.LVL15:
  85:.\mpu_i2c.c   **** 	I2C_I2CMasterSendStart(acc_adr, I2C_I2C_WRITE_XFER_MODE);
 271              		.loc 1 85 0
 272 0006 6820     		mov	r0, #104
 273 0008 0021     		mov	r1, #0
 274 000a FFF7FEFF 		bl	I2C_I2CMasterSendStart
 275              	.LVL16:
  86:.\mpu_i2c.c   **** 	I2C_I2CMasterWriteByte(0x6B);
 276              		.loc 1 86 0
 277 000e 6B20     		mov	r0, #107
 278 0010 FFF7FEFF 		bl	I2C_I2CMasterWriteByte
 279              	.LVL17:
  87:.\mpu_i2c.c   **** 	I2C_I2CMasterWriteByte(0x00);
 280              		.loc 1 87 0
 281 0014 0020     		mov	r0, #0
 282 0016 FFF7FEFF 		bl	I2C_I2CMasterWriteByte
 283              	.LVL18:
  88:.\mpu_i2c.c   **** 	I2C_I2CMasterSendStop();	
 284              		.loc 1 88 0
 285 001a FFF7FEFF 		bl	I2C_I2CMasterSendStop
 286              	.LVL19:
  89:.\mpu_i2c.c   ****     
  90:.\mpu_i2c.c   ****     i2c_isr_StartEx(I2cInterruptHandler);
 287              		.loc 1 90 0
 288 001e 0348     		ldr	r0, .L17
 289 0020 FFF7FEFF 		bl	i2c_isr_StartEx
ARM GAS  C:\Users\MCisek\AppData\Local\Temp\cckWkEJe.s 			page 8


 290              	.LVL20:
  91:.\mpu_i2c.c   ****     Timer_i2c_isr_Start();
 291              		.loc 1 91 0
 292 0024 FFF7FEFF 		bl	Timer_i2c_isr_Start
 293              	.LVL21:
  92:.\mpu_i2c.c   **** }
 294              		.loc 1 92 0
 295              		@ sp needed
 296 0028 08BD     		pop	{r3, pc}
 297              	.L18:
 298 002a C046     		.align	2
 299              	.L17:
 300 002c 00000000 		.word	I2cInterruptHandler
 301              		.cfi_endproc
 302              	.LFE40:
 303              		.size	Init_MPU, .-Init_MPU
 304              		.section	.text.Debug_send_accelerometer_values,"ax",%progbits
 305              		.align	2
 306              		.global	Debug_send_accelerometer_values
 307              		.code	16
 308              		.thumb_func
 309              		.type	Debug_send_accelerometer_values, %function
 310              	Debug_send_accelerometer_values:
 311              	.LFB41:
  93:.\mpu_i2c.c   **** 
  94:.\mpu_i2c.c   **** void Debug_send_accelerometer_values()
  95:.\mpu_i2c.c   **** {
 312              		.loc 1 95 0
 313              		.cfi_startproc
  96:.\mpu_i2c.c   **** 	
  97:.\mpu_i2c.c   **** }
 314              		.loc 1 97 0
 315              		@ sp needed
 316 0000 7047     		bx	lr
 317              		.cfi_endproc
 318              	.LFE41:
 319              		.size	Debug_send_accelerometer_values, .-Debug_send_accelerometer_values
 320 0002 C046     		.section	.text.Debug_send_gyroscope_values,"ax",%progbits
 321              		.align	2
 322              		.global	Debug_send_gyroscope_values
 323              		.code	16
 324              		.thumb_func
 325              		.type	Debug_send_gyroscope_values, %function
 326              	Debug_send_gyroscope_values:
 327              	.LFB42:
  98:.\mpu_i2c.c   **** 
  99:.\mpu_i2c.c   **** void Debug_send_gyroscope_values()
 100:.\mpu_i2c.c   **** {
 328              		.loc 1 100 0
 329              		.cfi_startproc
 330 0000 10B5     		push	{r4, lr}
 331              		.cfi_def_cfa_offset 8
 332              		.cfi_offset 4, -8
 333              		.cfi_offset 14, -4
 101:.\mpu_i2c.c   **** 	DEBUG_tx_Write(gyX[0]);
 334              		.loc 1 101 0
 335 0002 0E4C     		ldr	r4, .L21
ARM GAS  C:\Users\MCisek\AppData\Local\Temp\cckWkEJe.s 			page 9


 336 0004 2078     		ldrb	r0, [r4]
 337 0006 C0B2     		uxtb	r0, r0
 338 0008 FFF7FEFF 		bl	DEBUG_tx_Write
 339              	.LVL22:
 102:.\mpu_i2c.c   **** 	DEBUG_tx_Write(gyX[1]);
 340              		.loc 1 102 0
 341 000c 6078     		ldrb	r0, [r4, #1]
 342 000e C0B2     		uxtb	r0, r0
 343 0010 FFF7FEFF 		bl	DEBUG_tx_Write
 344              	.LVL23:
 103:.\mpu_i2c.c   **** 	DEBUG_tx_Write(gyY[0]);
 345              		.loc 1 103 0
 346 0014 0A4C     		ldr	r4, .L21+4
 347 0016 2078     		ldrb	r0, [r4]
 348 0018 C0B2     		uxtb	r0, r0
 349 001a FFF7FEFF 		bl	DEBUG_tx_Write
 350              	.LVL24:
 104:.\mpu_i2c.c   **** 	DEBUG_tx_Write(gyY[1]);
 351              		.loc 1 104 0
 352 001e 6078     		ldrb	r0, [r4, #1]
 353 0020 C0B2     		uxtb	r0, r0
 354 0022 FFF7FEFF 		bl	DEBUG_tx_Write
 355              	.LVL25:
 105:.\mpu_i2c.c   **** 	DEBUG_tx_Write(gyZ[0]);
 356              		.loc 1 105 0
 357 0026 074C     		ldr	r4, .L21+8
 358 0028 2078     		ldrb	r0, [r4]
 359 002a C0B2     		uxtb	r0, r0
 360 002c FFF7FEFF 		bl	DEBUG_tx_Write
 361              	.LVL26:
 106:.\mpu_i2c.c   **** 	DEBUG_tx_Write(gyZ[1]);
 362              		.loc 1 106 0
 363 0030 6078     		ldrb	r0, [r4, #1]
 364 0032 C0B2     		uxtb	r0, r0
 365 0034 FFF7FEFF 		bl	DEBUG_tx_Write
 366              	.LVL27:
 107:.\mpu_i2c.c   **** }
 367              		.loc 1 107 0
 368              		@ sp needed
 369 0038 10BD     		pop	{r4, pc}
 370              	.L22:
 371 003a C046     		.align	2
 372              	.L21:
 373 003c 00000000 		.word	gyX
 374 0040 00000000 		.word	gyY
 375 0044 00000000 		.word	gyZ
 376              		.cfi_endproc
 377              	.LFE42:
 378              		.size	Debug_send_gyroscope_values, .-Debug_send_gyroscope_values
 379              		.global	i2c_flag
 380              		.comm	gyZ,2,4
 381              		.comm	gyY,2,4
 382              		.comm	gyX,2,4
 383              		.global	acZ
 384              		.global	acY
 385              		.global	acX
 386              		.global	acc_adr
ARM GAS  C:\Users\MCisek\AppData\Local\Temp\cckWkEJe.s 			page 10


 387              		.section	.rodata
 388              		.type	acc_adr, %object
 389              		.size	acc_adr, 1
 390              	acc_adr:
 391 0000 68       		.byte	104
 392              		.bss
 393              		.align	1
 394              		.set	.LANCHOR0,. + 0
 395              		.type	i2c_flag, %object
 396              		.size	i2c_flag, 1
 397              	i2c_flag:
 398 0000 00       		.space	1
 399 0001 00       		.space	1
 400              		.type	acX, %object
 401              		.size	acX, 2
 402              	acX:
 403 0002 0000     		.space	2
 404              		.type	acY, %object
 405              		.size	acY, 2
 406              	acY:
 407 0004 0000     		.space	2
 408              		.type	acZ, %object
 409              		.size	acZ, 2
 410              	acZ:
 411 0006 0000     		.space	2
 412              		.text
 413              	.Letext0:
 414              		.file 2 "Generated_Source\\PSoC4/cytypes.h"
 415              		.file 3 "Generated_Source\\PSoC4/GPIO_0.h"
 416              		.file 4 "Generated_Source\\PSoC4/Timer_i2c_isr.h"
 417              		.file 5 "Generated_Source\\PSoC4/I2C_I2C.h"
 418              		.file 6 "Generated_Source\\PSoC4/i2c_isr.h"
 419              		.file 7 "Generated_Source\\PSoC4/I2C.h"
 420              		.file 8 "Generated_Source\\PSoC4/DEBUG_tx.h"