ARM GAS  C:\Users\Kombajny\AppData\Local\Temp\ccmjgWa6.s 			page 1


   1              		.cpu cortex-m0
   2              		.fpu softvfp
   3              		.eabi_attribute 20, 1
   4              		.eabi_attribute 21, 1
   5              		.eabi_attribute 23, 3
   6              		.eabi_attribute 24, 1
   7              		.eabi_attribute 25, 1
   8              		.eabi_attribute 26, 1
   9              		.eabi_attribute 30, 1
  10              		.eabi_attribute 34, 0
  11              		.eabi_attribute 18, 4
  12              		.code	16
  13              		.file	"main.c"
  14              		.text
  15              	.Ltext0:
  16              		.cfi_sections	.debug_frame
  17              		.section	.text.Read_accelerometer_values,"ax",%progbits
  18              		.align	2
  19              		.global	Read_accelerometer_values
  20              		.code	16
  21              		.thumb_func
  22              		.type	Read_accelerometer_values, %function
  23              	Read_accelerometer_values:
  24              	.LFB35:
  25              		.file 1 ".\\main.c"
   1:.\main.c      **** /* ========================================
   2:.\main.c      ****  *
   3:.\main.c      ****  * Copyright YOUR COMPANY, THE YEAR
   4:.\main.c      ****  * All Rights Reserved
   5:.\main.c      ****  * UNPUBLISHED, LICENSED SOFTWARE.
   6:.\main.c      ****  *
   7:.\main.c      ****  * CONFIDENTIAL AND PROPRIETARY INFORMATION
   8:.\main.c      ****  * WHICH IS THE PROPERTY OF your company.
   9:.\main.c      ****  *
  10:.\main.c      ****  * ========================================
  11:.\main.c      **** */
  12:.\main.c      **** #include <project.h>
  13:.\main.c      **** #define DEBUG
  14:.\main.c      **** 
  15:.\main.c      **** const uint8 acc_adr = 0x68;
  16:.\main.c      **** 
  17:.\main.c      **** volatile uint16 acX = 0;
  18:.\main.c      **** volatile uint16 acY = 0;
  19:.\main.c      **** volatile uint16 acZ = 0;
  20:.\main.c      **** 
  21:.\main.c      **** volatile uint8 gyX [2];
  22:.\main.c      **** volatile uint8 gyY [2];
  23:.\main.c      **** volatile uint8 gyZ [2];
  24:.\main.c      **** 
  25:.\main.c      **** void Read_accelerometer_values()
  26:.\main.c      **** {
  26              		.loc 1 26 0
  27              		.cfi_startproc
  28 0000 00B5     		push	{lr}
  29              		.cfi_def_cfa_offset 4
  30              		.cfi_offset 14, -4
  31 0002 83B0     		sub	sp, sp, #12
ARM GAS  C:\Users\Kombajny\AppData\Local\Temp\ccmjgWa6.s 			page 2


  32              		.cfi_def_cfa_offset 16
  27:.\main.c      **** 	I2C_I2CMasterSendStart(acc_adr, I2C_I2C_WRITE_XFER_MODE);
  33              		.loc 1 27 0
  34 0004 6820     		mov	r0, #104
  35 0006 0021     		mov	r1, #0
  36 0008 FFF7FEFF 		bl	I2C_I2CMasterSendStart
  37              	.LVL0:
  28:.\main.c      **** 	I2C_I2CMasterWriteByte(0x3B);
  38              		.loc 1 28 0
  39 000c 3B20     		mov	r0, #59
  40 000e FFF7FEFF 		bl	I2C_I2CMasterWriteByte
  41              	.LVL1:
  29:.\main.c      **** 	I2C_I2CMasterSendStop();
  42              		.loc 1 29 0
  43 0012 FFF7FEFF 		bl	I2C_I2CMasterSendStop
  44              	.LVL2:
  30:.\main.c      **** 	
  31:.\main.c      **** 	//I2C_I2CMasterSendStart(acc_adr, I2C_I2C_MODE_NO_STOP);
  32:.\main.c      **** 	uint8 buf[6];
  33:.\main.c      **** 	I2C_I2CMasterReadBuf(acc_adr, buf, 6, I2C_I2C_WRITE_XFER_MODE);
  45              		.loc 1 33 0
  46 0016 6820     		mov	r0, #104
  47 0018 6946     		mov	r1, sp
  48 001a 0622     		mov	r2, #6
  49 001c 0023     		mov	r3, #0
  50 001e FFF7FEFF 		bl	I2C_I2CMasterReadBuf
  51              	.LVL3:
  34:.\main.c      **** 	I2C_I2CMasterSendStop();
  52              		.loc 1 34 0
  53 0022 FFF7FEFF 		bl	I2C_I2CMasterSendStop
  54              	.LVL4:
  35:.\main.c      **** 	
  36:.\main.c      **** 	acX = buf[0]<<8 | buf[1];
  55              		.loc 1 36 0
  56 0026 6846     		mov	r0, sp
  57 0028 0278     		ldrb	r2, [r0]
  58 002a 1202     		lsl	r2, r2, #8
  59 002c 4378     		ldrb	r3, [r0, #1]
  60 002e 1A43     		orr	r2, r3
  61 0030 064B     		ldr	r3, .L2
  62 0032 1A80     		strh	r2, [r3]
  37:.\main.c      **** 	acY = buf[2]<<8 | buf[3];
  63              		.loc 1 37 0
  64 0034 8278     		ldrb	r2, [r0, #2]
  65 0036 1202     		lsl	r2, r2, #8
  66 0038 C178     		ldrb	r1, [r0, #3]
  67 003a 0A43     		orr	r2, r1
  68 003c 5A80     		strh	r2, [r3, #2]
  38:.\main.c      **** 	acZ = buf[4]<<8 | buf[5];
  69              		.loc 1 38 0
  70 003e 0279     		ldrb	r2, [r0, #4]
  71 0040 1202     		lsl	r2, r2, #8
  72 0042 4179     		ldrb	r1, [r0, #5]
  73 0044 0A43     		orr	r2, r1
  74 0046 9A80     		strh	r2, [r3, #4]
  39:.\main.c      **** }
  75              		.loc 1 39 0
ARM GAS  C:\Users\Kombajny\AppData\Local\Temp\ccmjgWa6.s 			page 3


  76 0048 03B0     		add	sp, sp, #12
  77              		@ sp needed
  78 004a 00BD     		pop	{pc}
  79              	.L3:
  80              		.align	2
  81              	.L2:
  82 004c 00000000 		.word	.LANCHOR0
  83              		.cfi_endproc
  84              	.LFE35:
  85              		.size	Read_accelerometer_values, .-Read_accelerometer_values
  86              		.section	.text.Read_gyroscope_values,"ax",%progbits
  87              		.align	2
  88              		.global	Read_gyroscope_values
  89              		.code	16
  90              		.thumb_func
  91              		.type	Read_gyroscope_values, %function
  92              	Read_gyroscope_values:
  93              	.LFB36:
  40:.\main.c      **** 
  41:.\main.c      **** void Read_gyroscope_values()
  42:.\main.c      **** {
  94              		.loc 1 42 0
  95              		.cfi_startproc
  96 0000 00B5     		push	{lr}
  97              		.cfi_def_cfa_offset 4
  98              		.cfi_offset 14, -4
  99 0002 83B0     		sub	sp, sp, #12
 100              		.cfi_def_cfa_offset 16
  43:.\main.c      **** 	I2C_I2CMasterSendStart(acc_adr, I2C_I2C_WRITE_XFER_MODE);
 101              		.loc 1 43 0
 102 0004 6820     		mov	r0, #104
 103 0006 0021     		mov	r1, #0
 104 0008 FFF7FEFF 		bl	I2C_I2CMasterSendStart
 105              	.LVL5:
  44:.\main.c      **** 	I2C_I2CMasterWriteByte(0x43);
 106              		.loc 1 44 0
 107 000c 4320     		mov	r0, #67
 108 000e FFF7FEFF 		bl	I2C_I2CMasterWriteByte
 109              	.LVL6:
  45:.\main.c      **** 	I2C_I2CMasterSendStop();
 110              		.loc 1 45 0
 111 0012 FFF7FEFF 		bl	I2C_I2CMasterSendStop
 112              	.LVL7:
  46:.\main.c      **** 	
  47:.\main.c      **** 	//I2C_I2CMasterSendStart(acc_adr, I2C_I2C_MODE_NO_STOP);
  48:.\main.c      **** 	uint8 buf[6];
  49:.\main.c      **** 	I2C_I2CMasterReadBuf(acc_adr, buf, 6, I2C_I2C_WRITE_XFER_MODE);
 113              		.loc 1 49 0
 114 0016 6820     		mov	r0, #104
 115 0018 6946     		mov	r1, sp
 116 001a 0622     		mov	r2, #6
 117 001c 0023     		mov	r3, #0
 118 001e FFF7FEFF 		bl	I2C_I2CMasterReadBuf
 119              	.LVL8:
  50:.\main.c      **** 	I2C_I2CMasterSendStop();
 120              		.loc 1 50 0
 121 0022 FFF7FEFF 		bl	I2C_I2CMasterSendStop
ARM GAS  C:\Users\Kombajny\AppData\Local\Temp\ccmjgWa6.s 			page 4


 122              	.LVL9:
  51:.\main.c      **** 	
  52:.\main.c      **** 	gyX[0] = buf[0]; gyX[1] = buf[1];
 123              		.loc 1 52 0
 124 0026 6946     		mov	r1, sp
 125 0028 0A78     		ldrb	r2, [r1]
 126 002a 084B     		ldr	r3, .L5
 127 002c 1A70     		strb	r2, [r3]
 128 002e 4A78     		ldrb	r2, [r1, #1]
 129 0030 5A70     		strb	r2, [r3, #1]
  53:.\main.c      **** 	gyY[0] = buf[2]; gyY[1] = buf[3];
 130              		.loc 1 53 0
 131 0032 8A78     		ldrb	r2, [r1, #2]
 132 0034 064B     		ldr	r3, .L5+4
 133 0036 1A70     		strb	r2, [r3]
 134 0038 CA78     		ldrb	r2, [r1, #3]
 135 003a 5A70     		strb	r2, [r3, #1]
  54:.\main.c      **** 	gyZ[0] = buf[4]; gyZ[1] = buf[5];
 136              		.loc 1 54 0
 137 003c 0A79     		ldrb	r2, [r1, #4]
 138 003e 054B     		ldr	r3, .L5+8
 139 0040 1A70     		strb	r2, [r3]
 140 0042 4A79     		ldrb	r2, [r1, #5]
 141 0044 5A70     		strb	r2, [r3, #1]
  55:.\main.c      **** }
 142              		.loc 1 55 0
 143 0046 03B0     		add	sp, sp, #12
 144              		@ sp needed
 145 0048 00BD     		pop	{pc}
 146              	.L6:
 147 004a C046     		.align	2
 148              	.L5:
 149 004c 00000000 		.word	gyX
 150 0050 00000000 		.word	gyY
 151 0054 00000000 		.word	gyZ
 152              		.cfi_endproc
 153              	.LFE36:
 154              		.size	Read_gyroscope_values, .-Read_gyroscope_values
 155              		.section	.text.Init_MPU,"ax",%progbits
 156              		.align	2
 157              		.global	Init_MPU
 158              		.code	16
 159              		.thumb_func
 160              		.type	Init_MPU, %function
 161              	Init_MPU:
 162              	.LFB37:
  56:.\main.c      **** 
  57:.\main.c      **** void Init_MPU()
  58:.\main.c      **** {
 163              		.loc 1 58 0
 164              		.cfi_startproc
 165 0000 08B5     		push	{r3, lr}
 166              		.cfi_def_cfa_offset 8
 167              		.cfi_offset 3, -8
 168              		.cfi_offset 14, -4
  59:.\main.c      **** 	I2C_I2CMasterSendStart(acc_adr, I2C_I2C_WRITE_XFER_MODE);
 169              		.loc 1 59 0
ARM GAS  C:\Users\Kombajny\AppData\Local\Temp\ccmjgWa6.s 			page 5


 170 0002 6820     		mov	r0, #104
 171 0004 0021     		mov	r1, #0
 172 0006 FFF7FEFF 		bl	I2C_I2CMasterSendStart
 173              	.LVL10:
  60:.\main.c      **** 	I2C_I2CMasterWriteByte(0x6B);
 174              		.loc 1 60 0
 175 000a 6B20     		mov	r0, #107
 176 000c FFF7FEFF 		bl	I2C_I2CMasterWriteByte
 177              	.LVL11:
  61:.\main.c      **** 	I2C_I2CMasterWriteByte(0x00);
 178              		.loc 1 61 0
 179 0010 0020     		mov	r0, #0
 180 0012 FFF7FEFF 		bl	I2C_I2CMasterWriteByte
 181              	.LVL12:
  62:.\main.c      **** 	I2C_I2CMasterSendStop();	
 182              		.loc 1 62 0
 183 0016 FFF7FEFF 		bl	I2C_I2CMasterSendStop
 184              	.LVL13:
  63:.\main.c      **** }
 185              		.loc 1 63 0
 186              		@ sp needed
 187 001a 08BD     		pop	{r3, pc}
 188              		.cfi_endproc
 189              	.LFE37:
 190              		.size	Init_MPU, .-Init_MPU
 191              		.section	.text.Debug_send_accelerometer_values,"ax",%progbits
 192              		.align	2
 193              		.global	Debug_send_accelerometer_values
 194              		.code	16
 195              		.thumb_func
 196              		.type	Debug_send_accelerometer_values, %function
 197              	Debug_send_accelerometer_values:
 198              	.LFB38:
  64:.\main.c      **** 
  65:.\main.c      **** void Debug_send_accelerometer_values()
  66:.\main.c      **** {
 199              		.loc 1 66 0
 200              		.cfi_startproc
  67:.\main.c      **** 	
  68:.\main.c      **** }
 201              		.loc 1 68 0
 202              		@ sp needed
 203 0000 7047     		bx	lr
 204              		.cfi_endproc
 205              	.LFE38:
 206              		.size	Debug_send_accelerometer_values, .-Debug_send_accelerometer_values
 207 0002 C046     		.section	.text.Debug_send_gyroscope_values,"ax",%progbits
 208              		.align	2
 209              		.global	Debug_send_gyroscope_values
 210              		.code	16
 211              		.thumb_func
 212              		.type	Debug_send_gyroscope_values, %function
 213              	Debug_send_gyroscope_values:
 214              	.LFB39:
  69:.\main.c      **** 
  70:.\main.c      **** void Debug_send_gyroscope_values()
  71:.\main.c      **** {
ARM GAS  C:\Users\Kombajny\AppData\Local\Temp\ccmjgWa6.s 			page 6


 215              		.loc 1 71 0
 216              		.cfi_startproc
 217 0000 10B5     		push	{r4, lr}
 218              		.cfi_def_cfa_offset 8
 219              		.cfi_offset 4, -8
 220              		.cfi_offset 14, -4
  72:.\main.c      **** 	DEBUG_tx_Write(gyX[0]);
 221              		.loc 1 72 0
 222 0002 0E4C     		ldr	r4, .L10
 223 0004 2078     		ldrb	r0, [r4]
 224 0006 C0B2     		uxtb	r0, r0
 225 0008 FFF7FEFF 		bl	DEBUG_tx_Write
 226              	.LVL14:
  73:.\main.c      **** 	DEBUG_tx_Write(gyX[1]);
 227              		.loc 1 73 0
 228 000c 6078     		ldrb	r0, [r4, #1]
 229 000e C0B2     		uxtb	r0, r0
 230 0010 FFF7FEFF 		bl	DEBUG_tx_Write
 231              	.LVL15:
  74:.\main.c      **** 	DEBUG_tx_Write(gyY[0]);
 232              		.loc 1 74 0
 233 0014 0A4C     		ldr	r4, .L10+4
 234 0016 2078     		ldrb	r0, [r4]
 235 0018 C0B2     		uxtb	r0, r0
 236 001a FFF7FEFF 		bl	DEBUG_tx_Write
 237              	.LVL16:
  75:.\main.c      **** 	DEBUG_tx_Write(gyY[1]);
 238              		.loc 1 75 0
 239 001e 6078     		ldrb	r0, [r4, #1]
 240 0020 C0B2     		uxtb	r0, r0
 241 0022 FFF7FEFF 		bl	DEBUG_tx_Write
 242              	.LVL17:
  76:.\main.c      **** 	DEBUG_tx_Write(gyZ[0]);
 243              		.loc 1 76 0
 244 0026 074C     		ldr	r4, .L10+8
 245 0028 2078     		ldrb	r0, [r4]
 246 002a C0B2     		uxtb	r0, r0
 247 002c FFF7FEFF 		bl	DEBUG_tx_Write
 248              	.LVL18:
  77:.\main.c      **** 	DEBUG_tx_Write(gyZ[1]);
 249              		.loc 1 77 0
 250 0030 6078     		ldrb	r0, [r4, #1]
 251 0032 C0B2     		uxtb	r0, r0
 252 0034 FFF7FEFF 		bl	DEBUG_tx_Write
 253              	.LVL19:
  78:.\main.c      **** }
 254              		.loc 1 78 0
 255              		@ sp needed
 256 0038 10BD     		pop	{r4, pc}
 257              	.L11:
 258 003a C046     		.align	2
 259              	.L10:
 260 003c 00000000 		.word	gyX
 261 0040 00000000 		.word	gyY
 262 0044 00000000 		.word	gyZ
 263              		.cfi_endproc
 264              	.LFE39:
ARM GAS  C:\Users\Kombajny\AppData\Local\Temp\ccmjgWa6.s 			page 7


 265              		.size	Debug_send_gyroscope_values, .-Debug_send_gyroscope_values
 266              		.section	.text.Initialize_System,"ax",%progbits
 267              		.align	2
 268              		.global	Initialize_System
 269              		.code	16
 270              		.thumb_func
 271              		.type	Initialize_System, %function
 272              	Initialize_System:
 273              	.LFB40:
  79:.\main.c      **** 
  80:.\main.c      **** void Initialize_System()
  81:.\main.c      **** {
 274              		.loc 1 81 0
 275              		.cfi_startproc
 276 0000 08B5     		push	{r3, lr}
 277              		.cfi_def_cfa_offset 8
 278              		.cfi_offset 3, -8
 279              		.cfi_offset 14, -4
  82:.\main.c      ****     #ifdef DEBUG
  83:.\main.c      ****         DEBUG_Start();
 280              		.loc 1 83 0
 281 0002 FFF7FEFF 		bl	DEBUG_Start
 282              	.LVL20:
  84:.\main.c      **** 		DEBUG_UartInit();
 283              		.loc 1 84 0
 284 0006 FFF7FEFF 		bl	DEBUG_UartInit
 285              	.LVL21:
  85:.\main.c      ****     #endif
  86:.\main.c      **** 	
  87:.\main.c      **** 	I2C_Start();
 286              		.loc 1 87 0
 287 000a FFF7FEFF 		bl	I2C_Start
 288              	.LVL22:
  88:.\main.c      **** 	Init_MPU();
 289              		.loc 1 88 0
 290 000e FFF7FEFF 		bl	Init_MPU
 291              	.LVL23:
  89:.\main.c      **** }
 292              		.loc 1 89 0
 293              		@ sp needed
 294 0012 08BD     		pop	{r3, pc}
 295              		.cfi_endproc
 296              	.LFE40:
 297              		.size	Initialize_System, .-Initialize_System
 298              		.section	.text.main,"ax",%progbits
 299              		.align	2
 300              		.global	main
 301              		.code	16
 302              		.thumb_func
 303              		.type	main, %function
 304              	main:
 305              	.LFB41:
  90:.\main.c      **** 
  91:.\main.c      **** int main()
  92:.\main.c      **** {
 306              		.loc 1 92 0
 307              		.cfi_startproc
ARM GAS  C:\Users\Kombajny\AppData\Local\Temp\ccmjgWa6.s 			page 8


 308 0000 08B5     		push	{r3, lr}
 309              		.cfi_def_cfa_offset 8
 310              		.cfi_offset 3, -8
 311              		.cfi_offset 14, -4
  93:.\main.c      ****     CyGlobalIntEnable;      /* Enable global interrupts */
 312              		.loc 1 93 0
 313              	@ 93 ".\main.c" 1
 314 0002 62B6     		CPSIE   i
 315              	@ 0 "" 2
  94:.\main.c      ****     
  95:.\main.c      ****     Initialize_System();
 316              		.loc 1 95 0
 317              		.code	16
 318 0004 FFF7FEFF 		bl	Initialize_System
 319              	.LVL24:
  96:.\main.c      **** 	
  97:.\main.c      **** 	DEBUG_UartPutString("START");
 320              		.loc 1 97 0
 321 0008 0548     		ldr	r0, .L15
 322 000a FFF7FEFF 		bl	DEBUG_UartPutString
 323              	.LVL25:
 324              	.L14:
  98:.\main.c      ****     
  99:.\main.c      ****     for(;;)
 100:.\main.c      ****     {
 101:.\main.c      ****          Read_accelerometer_values();
 325              		.loc 1 101 0 discriminator 1
 326 000e FFF7FEFF 		bl	Read_accelerometer_values
 327              	.LVL26:
 102:.\main.c      **** 		CyDelay(100);
 328              		.loc 1 102 0 discriminator 1
 329 0012 6420     		mov	r0, #100
 330 0014 FFF7FEFF 		bl	CyDelay
 331              	.LVL27:
 103:.\main.c      **** 		#ifdef DEBUG
 104:.\main.c      **** 			Debug_send_gyroscope_values();
 332              		.loc 1 104 0 discriminator 1
 333 0018 FFF7FEFF 		bl	Debug_send_gyroscope_values
 334              	.LVL28:
 335 001c F7E7     		b	.L14
 336              	.L16:
 337 001e C046     		.align	2
 338              	.L15:
 339 0020 00000000 		.word	.LC7
 340              		.cfi_endproc
 341              	.LFE41:
 342              		.size	main, .-main
 343              		.comm	gyZ,2,4
 344              		.comm	gyY,2,4
 345              		.comm	gyX,2,4
 346              		.global	acZ
 347              		.global	acY
 348              		.global	acX
 349              		.global	acc_adr
 350              		.section	.rodata
 351              		.type	acc_adr, %object
 352              		.size	acc_adr, 1
ARM GAS  C:\Users\Kombajny\AppData\Local\Temp\ccmjgWa6.s 			page 9


 353              	acc_adr:
 354 0000 68       		.byte	104
 355              		.section	.rodata.str1.4,"aMS",%progbits,1
 356              		.align	2
 357              	.LC7:
 358 0000 53544152 		.ascii	"START\000"
 358      5400
 359 0006 0000     		.bss
 360              		.align	1
 361              		.set	.LANCHOR0,. + 0
 362              		.type	acX, %object
 363              		.size	acX, 2
 364              	acX:
 365 0000 0000     		.space	2
 366              		.type	acY, %object
 367              		.size	acY, 2
 368              	acY:
 369 0002 0000     		.space	2
 370              		.type	acZ, %object
 371              		.size	acZ, 2
 372              	acZ:
 373 0004 0000     		.space	2
 374              		.text
 375              	.Letext0:
 376              		.file 2 "Generated_Source\\PSoC4/cytypes.h"
 377              		.file 3 "Generated_Source\\PSoC4/I2C_I2C.h"
 378              		.file 4 "Generated_Source\\PSoC4/DEBUG.h"
 379              		.file 5 "Generated_Source\\PSoC4/DEBUG_SPI_UART_PVT.h"
 380              		.file 6 "Generated_Source\\PSoC4/I2C.h"
 381              		.file 7 "Generated_Source\\PSoC4/DEBUG_tx.h"
 382              		.file 8 "Generated_Source\\PSoC4/DEBUG_SPI_UART.h"
 383              		.file 9 "Generated_Source\\PSoC4/CyLib.h"